Archive member included because of file (symbol)

c:/devkitPro/devkitPSP/psp/sdk/lib\libosl.a(oslib.o)
                              psp/PspSound.o (osl_quit)
c:/devkitPro/devkitPSP/psp/sdk/lib\libosl.a(drawing.o)
                              gbcore/lcd.o (oslConvertColor)
c:/devkitPro/devkitPSP/psp/sdk/lib\libosl.a(image.o)
                              psp/main.o (osl_autoSwizzleImages)
c:/devkitPro/devkitPSP/psp/sdk/lib\libosl.a(palette.o)
                              c:/devkitPro/devkitPSP/psp/sdk/lib\libosl.a(drawing.o) (oslGetPaletteColor)
c:/devkitPro/devkitPSP/psp/sdk/lib\libosl.a(shape.o)
                              psp/VideoGu.o (oslBlendColors)
c:/devkitPro/devkitPSP/psp/sdk/lib\libosl.a(messagebox.o)
                              psp/SMS.o (oslMessageBox)
c:/devkitPro/devkitPSP/psp/sdk/lib\libosl.a(keys.o)
                              psp/menuplus.o (oslReadKeys)
c:/devkitPro/devkitPSP/psp/sdk/lib\libosl.a(vfpu.o)
                              psp/menuplus.o (oslCos)
c:/devkitPro/devkitPSP/psp/sdk/lib\libosl.a(text.o)
                              psp/VideoGu.o (oslSetTextColor)
c:/devkitPro/devkitPSP/psp/sdk/lib\libosl.a(vram_mgr.o)
                              c:/devkitPro/devkitPSP/psp/sdk/lib\libosl.a(drawing.o) (oslVramMgrSetParameters)
c:/devkitPro/devkitPSP/psp/sdk/lib\libosl.a(stub.o)
                              c:/devkitPro/devkitPSP/psp/sdk/lib\libosl.a(image.o) (sceDmacMemcpy)
c:/devkitPro/devkitPSP/psp/sdk/lib\libosl.a(audio.o)
                              c:/devkitPro/devkitPSP/psp/sdk/lib\libosl.a(oslib.o) (oslAudioVSync)
c:/devkitPro/devkitPSP/psp/sdk/lib\libosl.a(bgm.o)
                              c:/devkitPro/devkitPSP/psp/sdk/lib\libosl.a(audio.o) (oslLoadSoundFileBGM)
c:/devkitPro/devkitPSP/psp/sdk/lib\libosl.a(VirtualFile.o)
                              psp/VirtualGz.o (VirtualFileRegisterSource)
c:/devkitPro/devkitPSP/psp/sdk/lib\libosl.a(vfsFile.o)
                              c:/devkitPro/devkitPSP/psp/sdk/lib\libosl.a(VirtualFile.o) (oslInitVfsFile)
c:/devkitPro/devkitPSP/psp/sdk/lib\libosl.a(oslDrawImage.o)
                              psp/menuplus.o (oslDrawImage)
c:/devkitPro/devkitPSP/psp/sdk/lib\libosl.a(oslDrawImageSimple.o)
                              psp/menuplus.o (oslDrawImageSimple)
c:/devkitPro/devkitPSP/psp/sdk/lib\libosl.a(oslLockImage.o)
                              psp/menuplus.o (oslUnlockImage)
c:/devkitPro/devkitPSP/psp/sdk/lib\libosl.a(oslSwizzleImage.o)
                              psp/menuplus.o (oslSwizzleImage)
c:/devkitPro/devkitPSP/psp/sdk/lib\libosl.a(oslSetDrawBuffer.o)
                              psp/menuplus.o (oslSetDrawBuffer)
c:/devkitPro/devkitPSP/psp/sdk/lib\libosl.a(oslWriteImageFilePNG.o)
                              psp/menuplus.o (oslWriteImageFilePNG)
c:/devkitPro/devkitPSP/psp/sdk/lib\libosl.a(oslLoadImageFile.o)
                              psp/menuplus.o (oslLoadImageFile)
c:/devkitPro/devkitPSP/psp/sdk/lib\libosl.a(oslShowSplashScreen1.o)
                              psp/VideoGu.o (oslShowSplashScreen1)
c:/devkitPro/devkitPSP/psp/sdk/lib\libosl.a(oslShowSplashScreen2.o)
                              psp/VideoGu.o (oslShowSplashScreen2)
c:/devkitPro/devkitPSP/psp/sdk/lib\libosl.a(oslHandleLoadNoFailError.o)
                              c:/devkitPro/devkitPSP/psp/sdk/lib\libosl.a(text.o) (oslHandleLoadNoFailError)
c:/devkitPro/devkitPSP/psp/sdk/lib\libosl.a(oslMoveImageTo.o)
                              c:/devkitPro/devkitPSP/psp/sdk/lib\libosl.a(oslShowSplashScreen1.o) (oslMoveImageTo)
c:/devkitPro/devkitPSP/psp/sdk/lib\libosl.a(oslLoadImageFilePNG.o)
                              c:/devkitPro/devkitPSP/psp/sdk/lib\libosl.a(oslWriteImageFilePNG.o) (oslPngFlushFn)
c:/devkitPro/devkitPSP/psp/sdk/lib\libosl.a(oslLoadImageFileJPG.o)
                              c:/devkitPro/devkitPSP/psp/sdk/lib\libosl.a(oslLoadImageFile.o) (oslLoadImageFileJPG)
c:/devkitPro/devkitPSP/psp/sdk/lib\libosl.a(oslLoadImageFileGIF.o)
                              c:/devkitPro/devkitPSP/psp/sdk/lib\libosl.a(oslLoadImageFile.o) (oslLoadImageFileGIF)
c:/devkitPro/devkitPSP/psp/sdk/lib\libosl.a(oslConvertImageTo.o)
                              c:/devkitPro/devkitPSP/psp/sdk/lib\libosl.a(oslLoadImageFilePNG.o) (oslConvertImageTo)
c:/devkitPro/devkitPSP/psp/sdk/lib\libosl.a(oslSetImagePixel.o)
                              c:/devkitPro/devkitPSP/psp/sdk/lib\libosl.a(oslConvertImageTo.o) (oslSetImagePixel)
c:/devkitPro/devkitPSP/psp/sdk/lib\libosl.a(oslGetImagePixel.o)
                              c:/devkitPro/devkitPSP/psp/sdk/lib\libosl.a(oslConvertImageTo.o) (oslGetImagePixel)
c:/devkitPro/devkitPSP/psp/sdk/lib\libosl.a(gba-jpeg-decode.o)
                              c:/devkitPro/devkitPSP/psp/sdk/lib\libosl.a(oslLoadImageFileJPG.o) (JPEG_Decoder_ReadImage)
c:/devkitPro/devkitPSP/psp/sdk/lib\libosl.a(dgif_lib.o)
                              c:/devkitPro/devkitPSP/psp/sdk/lib\libosl.a(oslLoadImageFileGIF.o) (DGifGetLine)
c:/devkitPro/devkitPSP/psp/sdk/lib\libosl.a(gif_err.o)
                              c:/devkitPro/devkitPSP/psp/sdk/lib\libosl.a(dgif_lib.o) (_GifError)
c:/devkitPro/devkitPSP/psp/sdk/lib\libosl.a(gifalloc.o)
                              c:/devkitPro/devkitPSP/psp/sdk/lib\libosl.a(dgif_lib.o) (FreeMapObject)
c:/devkitPro/devkitPSP/psp/sdk/lib\libpng.a(png.o)
                              c:/devkitPro/devkitPSP/psp/sdk/lib\libosl.a(oslLoadImageFilePNG.o) (png_set_sig_bytes)
c:/devkitPro/devkitPSP/psp/sdk/lib\libpng.a(pngerror.o)
                              c:/devkitPro/devkitPSP/psp/sdk/lib\libpng.a(png.o) (png_warning)
c:/devkitPro/devkitPSP/psp/sdk/lib\libpng.a(pngmem.o)
                              c:/devkitPro/devkitPSP/psp/sdk/lib\libpng.a(png.o) (png_create_struct_2)
c:/devkitPro/devkitPSP/psp/sdk/lib\libpng.a(pngread.o)
                              c:/devkitPro/devkitPSP/psp/sdk/lib\libosl.a(oslLoadImageFilePNG.o) (png_create_read_struct)
c:/devkitPro/devkitPSP/psp/sdk/lib\libpng.a(pngrio.o)
                              c:/devkitPro/devkitPSP/psp/sdk/lib\libpng.a(pngread.o) (png_read_data)
c:/devkitPro/devkitPSP/psp/sdk/lib\libpng.a(pngrtran.o)
                              c:/devkitPro/devkitPSP/psp/sdk/lib\libpng.a(pngread.o) (png_set_strip_16)
c:/devkitPro/devkitPSP/psp/sdk/lib\libpng.a(pngrutil.o)
                              c:/devkitPro/devkitPSP/psp/sdk/lib\libpng.a(pngread.o) (png_get_uint_31)
c:/devkitPro/devkitPSP/psp/sdk/lib\libpng.a(pngset.o)
                              c:/devkitPro/devkitPSP/psp/sdk/lib\libpng.a(pngrutil.o) (png_set_bKGD)
c:/devkitPro/devkitPSP/psp/sdk/lib\libpng.a(pngtrans.o)
                              c:/devkitPro/devkitPSP/psp/sdk/lib\libpng.a(pngread.o) (png_set_bgr)
c:/devkitPro/devkitPSP/psp/sdk/lib\libpng.a(pngwio.o)
                              c:/devkitPro/devkitPSP/psp/sdk/lib\libosl.a(oslWriteImageFilePNG.o) (png_set_write_fn)
c:/devkitPro/devkitPSP/psp/sdk/lib\libpng.a(pngwrite.o)
                              c:/devkitPro/devkitPSP/psp/sdk/lib\libosl.a(oslWriteImageFilePNG.o) (png_write_info)
c:/devkitPro/devkitPSP/psp/sdk/lib\libpng.a(pngwtran.o)
                              c:/devkitPro/devkitPSP/psp/sdk/lib\libpng.a(pngwrite.o) (png_do_write_transformations)
c:/devkitPro/devkitPSP/psp/sdk/lib\libpng.a(pngwutil.o)
                              c:/devkitPro/devkitPSP/psp/sdk/lib\libpng.a(pngwrite.o) (png_write_chunk)
c:/devkitPro/devkitPSP/psp/sdk/lib\libpng.a(pngget.o)
                              c:/devkitPro/devkitPSP/psp/sdk/lib\libpng.a(pngread.o) (png_get_valid)
c:/devkitPro/devkitPSP/psp/sdk/lib\libz.a(adler32.o)
                              psp/deflate.o (adler32)
c:/devkitPro/devkitPSP/psp/sdk/lib\libz.a(compress.o)
                              psp/deflate.o (compressBound)
c:/devkitPro/devkitPSP/psp/sdk/lib\libz.a(crc32.o)
                              unzip/unzip.o (get_crc_table)
c:/devkitPro/devkitPSP/psp/sdk/lib\libz.a(inflate.o)
                              psp/gzio.o (inflateReset)
c:/devkitPro/devkitPSP/psp/sdk/lib\libz.a(inftrees.o)
                              c:/devkitPro/devkitPSP/psp/sdk/lib\libz.a(inflate.o) (inflate_table)
c:/devkitPro/devkitPSP/psp/sdk/lib\libz.a(trees.o)
                              psp/deflate.o (_length_code)
c:/devkitPro/devkitPSP/psp/sdk/lib\libz.a(uncompr.o)
                              psp/gym/gym.o (uncompress)
c:/devkitPro/devkitPSP/psp/sdk/lib\libz.a(zutil.o)
                              psp/deflate.o (z_errmsg)
c:/devkitPro/devkitPSP/psp/sdk/lib\libz.a(inffast.o)
                              c:/devkitPro/devkitPSP/psp/sdk/lib\libz.a(inflate.o) (inflate_fast)
c:/devkitPro/devkitPSP/psp/sdk/lib\libpsphprm.a(sceHprm_0004.o)
                              psp/sound.o (sceHprmIsHeadphoneExist)
c:/devkitPro/devkitPSP/psp/sdk/lib\libpsphprm.a(sceHprm_0000.o)
                              c:/devkitPro/devkitPSP/psp/sdk/lib\libpsphprm.a(sceHprm_0004.o) (__stub_module_sceHprm)
c:/devkitPro/devkitPSP/psp/sdk/lib\libpspctrl.a(sceCtrl_0001.o)
                              psp/Controls.o (sceCtrlSetSamplingCycle)
c:/devkitPro/devkitPSP/psp/sdk/lib\libpspctrl.a(sceCtrl_0003.o)
                              psp/Controls.o (sceCtrlSetSamplingMode)
c:/devkitPro/devkitPSP/psp/sdk/lib\libpspctrl.a(sceCtrl_0005.o)
                              psp/gameboy_render.o (sceCtrlPeekBufferPositive)
c:/devkitPro/devkitPSP/psp/sdk/lib\libpspctrl.a(sceCtrl_0000.o)
                              c:/devkitPro/devkitPSP/psp/sdk/lib\libpspctrl.a(sceCtrl_0001.o) (__stub_module_sceCtrl)
c:/devkitPro/devkitPSP/psp/sdk/lib\libpsppower.a(scePower_0010.o)
                              psp/menuplus.o (scePowerIsPowerOnline)
c:/devkitPro/devkitPSP/psp/sdk/lib\libpsppower.a(scePower_0011.o)
                              psp/menuplus.o (scePowerIsBatteryExist)
c:/devkitPro/devkitPSP/psp/sdk/lib\libpsppower.a(scePower_0012.o)
                              psp/menuplus.o (scePowerIsBatteryCharging)
c:/devkitPro/devkitPSP/psp/sdk/lib\libpsppower.a(scePower_0014.o)
                              psp/menuplus.o (scePowerIsLowBattery)
c:/devkitPro/devkitPSP/psp/sdk/lib\libpsppower.a(scePower_0018.o)
                              psp/menuplus.o (scePowerGetBatteryLifePercent)
c:/devkitPro/devkitPSP/psp/sdk/lib\libpsppower.a(scePower_0019.o)
                              psp/menuplus.o (scePowerGetBatteryLifeTime)
c:/devkitPro/devkitPSP/psp/sdk/lib\libpsppower.a(scePower_0020.o)
                              psp/menuplus.o (scePowerGetBatteryTemp)
c:/devkitPro/devkitPSP/psp/sdk/lib\libpsppower.a(scePower_0035.o)
                              c:/devkitPro/devkitPSP/psp/sdk/lib\libosl.a(oslib.o) (scePowerRegisterCallback)
c:/devkitPro/devkitPSP/psp/sdk/lib\libpsppower.a(scePower_0046.o)
                              psp/SMS.o (scePowerSetClockFrequency)
c:/devkitPro/devkitPSP/psp/sdk/lib\libpsppower.a(scePower_0000.o)
                              c:/devkitPro/devkitPSP/psp/sdk/lib\libpsppower.a(scePower_0010.o) (__stub_module_scePower)
c:/devkitPro/devkitPSP/psp/sdk/lib\libpspusb.a(sceUsb_0001.o)
                              psp/usb.o (sceUsbStart)
c:/devkitPro/devkitPSP/psp/sdk/lib\libpspusb.a(sceUsb_0002.o)
                              psp/usb.o (sceUsbStop)
c:/devkitPro/devkitPSP/psp/sdk/lib\libpspusb.a(sceUsb_0003.o)
                              psp/menuplus.o (sceUsbGetState)
c:/devkitPro/devkitPSP/psp/sdk/lib\libpspusb.a(sceUsb_0006.o)
                              psp/usb.o (sceUsbActivate)
c:/devkitPro/devkitPSP/psp/sdk/lib\libpspusb.a(sceUsb_0007.o)
                              psp/usb.o (sceUsbDeactivate)
c:/devkitPro/devkitPSP/psp/sdk/lib\libpspusb.a(sceUsb_0000.o)
                              c:/devkitPro/devkitPSP/psp/sdk/lib\libpspusb.a(sceUsb_0001.o) (__stub_module_sceUsb)
c:/devkitPro/devkitPSP/psp/sdk/lib\libpspusbstor.a(sceUsbstorBoot_0001.o)
                              psp/usb.o (sceUsbstorBootSetCapacity)
c:/devkitPro/devkitPSP/psp/sdk/lib\libpspusbstor.a(sceUsbstorBoot_0000.o)
                              c:/devkitPro/devkitPSP/psp/sdk/lib\libpspusbstor.a(sceUsbstorBoot_0001.o) (__stub_module_sceUsbstorBoot)
c:/devkitPro/devkitPSP/psp/sdk/lib\libpspgu.a(sceGuAlphaFunc.o)
                              c:/devkitPro/devkitPSP/psp/sdk/lib\libosl.a(drawing.o) (sceGuAlphaFunc)
c:/devkitPro/devkitPSP/psp/sdk/lib\libpspgu.a(sceGuAmbientColor.o)
                              c:/devkitPro/devkitPSP/psp/sdk/lib\libosl.a(drawing.o) (sceGuAmbientColor)
c:/devkitPro/devkitPSP/psp/sdk/lib\libpspgu.a(sceGuBlendFunc.o)
                              c:/devkitPro/devkitPSP/psp/sdk/lib\libosl.a(drawing.o) (sceGuBlendFunc)
c:/devkitPro/devkitPSP/psp/sdk/lib\libpspgu.a(sceGuClear.o)
                              c:/devkitPro/devkitPSP/psp/sdk/lib\libosl.a(drawing.o) (sceGuClear)
c:/devkitPro/devkitPSP/psp/sdk/lib\libpspgu.a(sceGuClearColor.o)
                              c:/devkitPro/devkitPSP/psp/sdk/lib\libosl.a(drawing.o) (sceGuClearColor)
c:/devkitPro/devkitPSP/psp/sdk/lib\libpspgu.a(sceGuClutLoad.o)
                              psp/VideoGu.o (sceGuClutLoad)
c:/devkitPro/devkitPSP/psp/sdk/lib\libpspgu.a(sceGuClutMode.o)
                              psp/VideoGu.o (sceGuClutMode)
c:/devkitPro/devkitPSP/psp/sdk/lib\libpspgu.a(sceGuColorFunc.o)
                              c:/devkitPro/devkitPSP/psp/sdk/lib\libosl.a(drawing.o) (sceGuColorFunc)
c:/devkitPro/devkitPSP/psp/sdk/lib\libpspgu.a(sceGuDisable.o)
                              psp/VideoGu.o (sceGuDisable)
c:/devkitPro/devkitPSP/psp/sdk/lib\libpspgu.a(sceGuDispBuffer.o)
                              c:/devkitPro/devkitPSP/psp/sdk/lib\libosl.a(drawing.o) (sceGuDispBuffer)
c:/devkitPro/devkitPSP/psp/sdk/lib\libpspgu.a(sceGuDisplay.o)
                              c:/devkitPro/devkitPSP/psp/sdk/lib\libosl.a(drawing.o) (sceGuDisplay)
c:/devkitPro/devkitPSP/psp/sdk/lib\libpspgu.a(sceGuDrawArray.o)
                              psp/VideoGu.o (sceGuDrawArray)
c:/devkitPro/devkitPSP/psp/sdk/lib\libpspgu.a(sceGuDrawBuffer.o)
                              c:/devkitPro/devkitPSP/psp/sdk/lib\libosl.a(drawing.o) (sceGuDrawBuffer)
c:/devkitPro/devkitPSP/psp/sdk/lib\libpspgu.a(sceGuEnable.o)
                              psp/VideoGu.o (sceGuEnable)
c:/devkitPro/devkitPSP/psp/sdk/lib\libpspgu.a(sceGuFinish.o)
                              c:/devkitPro/devkitPSP/psp/sdk/lib\libosl.a(drawing.o) (sceGuFinish)
c:/devkitPro/devkitPSP/psp/sdk/lib\libpspgu.a(sceGuGetMemory.o)
                              psp/VideoGu.o (sceGuGetMemory)
c:/devkitPro/devkitPSP/psp/sdk/lib\libpspgu.a(sceGuInit.o)
                              c:/devkitPro/devkitPSP/psp/sdk/lib\libosl.a(drawing.o) (sceGuInit)
c:/devkitPro/devkitPSP/psp/sdk/lib\libpspgu.a(sceGuScissor.o)
                              c:/devkitPro/devkitPSP/psp/sdk/lib\libosl.a(drawing.o) (sceGuScissor)
c:/devkitPro/devkitPSP/psp/sdk/lib\libpspgu.a(sceGuShadeModel.o)
                              c:/devkitPro/devkitPSP/psp/sdk/lib\libosl.a(drawing.o) (sceGuShadeModel)
c:/devkitPro/devkitPSP/psp/sdk/lib\libpspgu.a(sceGuStart.o)
                              c:/devkitPro/devkitPSP/psp/sdk/lib\libosl.a(drawing.o) (sceGuStart)
c:/devkitPro/devkitPSP/psp/sdk/lib\libpspgu.a(sceGuStencilFunc.o)
                              c:/devkitPro/devkitPSP/psp/sdk/lib\libosl.a(drawing.o) (sceGuStencilFunc)
c:/devkitPro/devkitPSP/psp/sdk/lib\libpspgu.a(sceGuStencilOp.o)
                              c:/devkitPro/devkitPSP/psp/sdk/lib\libosl.a(drawing.o) (sceGuStencilOp)
c:/devkitPro/devkitPSP/psp/sdk/lib\libpspgu.a(sceGuSwapBuffers.o)
                              c:/devkitPro/devkitPSP/psp/sdk/lib\libosl.a(drawing.o) (sceGuSwapBuffers)
c:/devkitPro/devkitPSP/psp/sdk/lib\libpspgu.a(sceGuSync.o)
                              c:/devkitPro/devkitPSP/psp/sdk/lib\libosl.a(drawing.o) (sceGuSync)
c:/devkitPro/devkitPSP/psp/sdk/lib\libpspgu.a(sceGuTerm.o)
                              psp/VideoGu.o (sceGuTerm)
c:/devkitPro/devkitPSP/psp/sdk/lib\libpspgu.a(sceGuTexFilter.o)
                              c:/devkitPro/devkitPSP/psp/sdk/lib\libosl.a(drawing.o) (sceGuTexFilter)
c:/devkitPro/devkitPSP/psp/sdk/lib\libpspgu.a(sceGuTexFunc.o)
                              c:/devkitPro/devkitPSP/psp/sdk/lib\libosl.a(drawing.o) (sceGuTexFunc)
c:/devkitPro/devkitPSP/psp/sdk/lib\libpspgu.a(sceGuTexImage.o)
                              psp/VideoGu.o (sceGuTexImage)
c:/devkitPro/devkitPSP/psp/sdk/lib\libpspgu.a(sceGuTexMode.o)
                              psp/VideoGu.o (sceGuTexMode)
c:/devkitPro/devkitPSP/psp/sdk/lib\libpspgu.a(sceGuTexScale.o)
                              c:/devkitPro/devkitPSP/psp/sdk/lib\libpspgu.a(sceGuStart.o) (sceGuTexScale)
c:/devkitPro/devkitPSP/psp/sdk/lib\libpspgu.a(sceGuTexWrap.o)
                              c:/devkitPro/devkitPSP/psp/sdk/lib\libosl.a(drawing.o) (sceGuTexWrap)
c:/devkitPro/devkitPSP/psp/sdk/lib\libpspgu.a(sendCommand.o)
                              c:/devkitPro/devkitPSP/psp/sdk/lib\libpspgu.a(sceGuAlphaFunc.o) (sendCommandi)
c:/devkitPro/devkitPSP/psp/sdk/lib\libpspgu.a(callbackFin.o)
                              c:/devkitPro/devkitPSP/psp/sdk/lib\libpspgu.a(sceGuInit.o) (callbackFin)
c:/devkitPro/devkitPSP/psp/sdk/lib\libpspgu.a(callbackSig.o)
                              c:/devkitPro/devkitPSP/psp/sdk/lib\libpspgu.a(sceGuInit.o) (callbackSig)
c:/devkitPro/devkitPSP/psp/sdk/lib\libpspgu.a(guInternal.o)
                              c:/devkitPro/devkitPSP/psp/sdk/lib\libpspgu.a(sceGuSwapBuffers.o) (gu_current_frame)
c:/devkitPro/devkitPSP/psp/sdk/lib\libpspgu.a(resetValues.o)
                              c:/devkitPro/devkitPSP/psp/sdk/lib\libpspgu.a(sceGuInit.o) (resetValues)
c:/devkitPro/devkitPSP/psp/sdk/lib\libpspgu.a(sceGuColorMaterial.o)
                              c:/devkitPro/devkitPSP/psp/sdk/lib\libpspgu.a(sceGuStart.o) (sceGuColorMaterial)
c:/devkitPro/devkitPSP/psp/sdk/lib\libpspgu.a(sceGuPatchDivide.o)
                              c:/devkitPro/devkitPSP/psp/sdk/lib\libpspgu.a(sceGuStart.o) (sceGuPatchDivide)
c:/devkitPro/devkitPSP/psp/sdk/lib\libpspgu.a(sceGuSetDither.o)
                              c:/devkitPro/devkitPSP/psp/sdk/lib\libpspgu.a(sceGuStart.o) (sceGuSetDither)
c:/devkitPro/devkitPSP/psp/sdk/lib\libpspgu.a(sceGuSpecular.o)
                              c:/devkitPro/devkitPSP/psp/sdk/lib\libpspgu.a(sceGuStart.o) (sceGuSpecular)
c:/devkitPro/devkitPSP/psp/sdk/lib\libpspgu.a(sceGuTexFlush.o)
                              c:/devkitPro/devkitPSP/psp/sdk/lib\libpspgu.a(sceGuTexImage.o) (sceGuTexFlush)
c:/devkitPro/devkitPSP/psp/sdk/lib\libpspaudio.a(sceAudio_0002.o)
                              psp/PspSound.o (sceAudioOutputBlocking)
c:/devkitPro/devkitPSP/psp/sdk/lib\libpspaudio.a(sceAudio_0004.o)
                              psp/sound.o (sceAudioOutputPannedBlocking)
c:/devkitPro/devkitPSP/psp/sdk/lib\libpspaudio.a(sceAudio_0005.o)
                              psp/PspSound.o (sceAudioChReserve)
c:/devkitPro/devkitPSP/psp/sdk/lib\libpspaudio.a(sceAudio_0007.o)
                              psp/PspSound.o (sceAudioChRelease)
c:/devkitPro/devkitPSP/psp/sdk/lib\libpspaudio.a(sceAudio_0010.o)
                              c:/devkitPro/devkitPSP/psp/sdk/lib\libosl.a(audio.o) (sceAudioChangeChannelConfig)
c:/devkitPro/devkitPSP/psp/sdk/lib\libpspaudio.a(sceAudio_0000.o)
                              c:/devkitPro/devkitPSP/psp/sdk/lib\libpspaudio.a(sceAudio_0002.o) (__stub_module_sceAudio)
c:/devkitpro/devkitpsp/bin/../lib/gcc/psp/4.1.2/../../../../psp/lib\libstdc++.a(del_op.o)
                              psp/sound.o (operator delete(void*))
c:/devkitpro/devkitpsp/bin/../lib/gcc/psp/4.1.2/../../../../psp/lib\libstdc++.a(del_opv.o)
                              psp/gym/gym.o (operator delete[](void*))
c:/devkitpro/devkitpsp/bin/../lib/gcc/psp/4.1.2/../../../../psp/lib\libstdc++.a(eh_personality.o)
                              c:/devkitpro/devkitpsp/bin/../lib/gcc/psp/4.1.2/../../../../psp/lib\libstdc++.a(del_op.o) (__gxx_personality_v0)
c:/devkitpro/devkitpsp/bin/../lib/gcc/psp/4.1.2/../../../../psp/lib\libstdc++.a(eh_terminate.o)
                              c:/devkitpro/devkitpsp/bin/../lib/gcc/psp/4.1.2/../../../../psp/lib\libstdc++.a(eh_personality.o) (__cxxabiv1::__terminate(void (*)()))
c:/devkitpro/devkitpsp/bin/../lib/gcc/psp/4.1.2/../../../../psp/lib\libstdc++.a(eh_term_handler.o)
                              c:/devkitpro/devkitpsp/bin/../lib/gcc/psp/4.1.2/../../../../psp/lib\libstdc++.a(eh_terminate.o) (__cxxabiv1::__terminate_handler)
c:/devkitpro/devkitpsp/bin/../lib/gcc/psp/4.1.2/../../../../psp/lib\libstdc++.a(eh_throw.o)
                              c:/devkitpro/devkitpsp/bin/../lib/gcc/psp/4.1.2/../../../../psp/lib\libstdc++.a(eh_personality.o) (__cxa_rethrow)
c:/devkitpro/devkitpsp/bin/../lib/gcc/psp/4.1.2/../../../../psp/lib\libstdc++.a(eh_unex_handler.o)
                              c:/devkitpro/devkitpsp/bin/../lib/gcc/psp/4.1.2/../../../../psp/lib\libstdc++.a(eh_terminate.o) (__cxxabiv1::__unexpected_handler)
c:/devkitpro/devkitpsp/bin/../lib/gcc/psp/4.1.2/../../../../psp/lib\libstdc++.a(new_op.o)
                              psp/sound.o (operator new(unsigned int))
c:/devkitpro/devkitpsp/bin/../lib/gcc/psp/4.1.2/../../../../psp/lib\libstdc++.a(new_opv.o)
                              psp/sound.o (operator new[](unsigned int))
c:/devkitpro/devkitpsp/bin/../lib/gcc/psp/4.1.2/../../../../psp/lib\libstdc++.a(vterminate.o)
                              c:/devkitpro/devkitpsp/bin/../lib/gcc/psp/4.1.2/../../../../psp/lib\libstdc++.a(eh_term_handler.o) (__gnu_cxx::__verbose_terminate_handler())
c:/devkitpro/devkitpsp/bin/../lib/gcc/psp/4.1.2/../../../../psp/lib\libstdc++.a(cp-demangle.o)
                              c:/devkitpro/devkitpsp/bin/../lib/gcc/psp/4.1.2/../../../../psp/lib\libstdc++.a(vterminate.o) (__cxa_demangle)
c:/devkitpro/devkitpsp/bin/../lib/gcc/psp/4.1.2/../../../../psp/lib\libstdc++.a(eh_alloc.o)
                              c:/devkitpro/devkitpsp/bin/../lib/gcc/psp/4.1.2/../../../../psp/lib\libstdc++.a(eh_throw.o) (__cxa_free_exception)
c:/devkitpro/devkitpsp/bin/../lib/gcc/psp/4.1.2/../../../../psp/lib\libstdc++.a(eh_call.o)
                              c:/devkitpro/devkitpsp/bin/../lib/gcc/psp/4.1.2/../../../../psp/lib\libstdc++.a(eh_personality.o) (__cxa_call_terminate)
c:/devkitpro/devkitpsp/bin/../lib/gcc/psp/4.1.2/../../../../psp/lib\libstdc++.a(eh_catch.o)
                              c:/devkitpro/devkitpsp/bin/../lib/gcc/psp/4.1.2/../../../../psp/lib\libstdc++.a(eh_personality.o) (__cxa_end_catch)
c:/devkitpro/devkitpsp/bin/../lib/gcc/psp/4.1.2/../../../../psp/lib\libstdc++.a(eh_exception.o)
                              c:/devkitpro/devkitpsp/bin/../lib/gcc/psp/4.1.2/../../../../psp/lib\libstdc++.a(eh_personality.o) (vtable for std::bad_exception)
c:/devkitpro/devkitpsp/bin/../lib/gcc/psp/4.1.2/../../../../psp/lib\libstdc++.a(eh_globals.o)
                              c:/devkitpro/devkitpsp/bin/../lib/gcc/psp/4.1.2/../../../../psp/lib\libstdc++.a(eh_personality.o) (__cxa_get_globals_fast)
c:/devkitpro/devkitpsp/bin/../lib/gcc/psp/4.1.2/../../../../psp/lib\libstdc++.a(eh_type.o)
                              c:/devkitpro/devkitpsp/bin/../lib/gcc/psp/4.1.2/../../../../psp/lib\libstdc++.a(vterminate.o) (__cxa_current_exception_type)
c:/devkitpro/devkitpsp/bin/../lib/gcc/psp/4.1.2/../../../../psp/lib\libstdc++.a(new_handler.o)
                              c:/devkitpro/devkitpsp/bin/../lib/gcc/psp/4.1.2/../../../../psp/lib\libstdc++.a(new_op.o) (__new_handler)
c:/devkitpro/devkitpsp/bin/../lib/gcc/psp/4.1.2/../../../../psp/lib\libstdc++.a(tinfo.o)
                              c:/devkitpro/devkitpsp/bin/../lib/gcc/psp/4.1.2/../../../../psp/lib\libstdc++.a(eh_exception.o) (vtable for __cxxabiv1::__class_type_info)
c:/devkitpro/devkitpsp/bin/../lib/gcc/psp/4.1.2/../../../../psp/lib\libm.a(s_ceil.o)
                              psp/gym/gym_play.o (ceil)
c:/devkitpro/devkitpsp/bin/../lib/gcc/psp/4.1.2/../../../../psp/lib\libm.a(s_floor.o)
                              sound/ym2413.o (floor)
c:/devkitpro/devkitpsp/bin/../lib/gcc/psp/4.1.2/../../../../psp/lib\libm.a(s_sin.o)
                              sound/emu2413.o (sin)
c:/devkitpro/devkitpsp/bin/../lib/gcc/psp/4.1.2/../../../../psp/lib\libm.a(w_log.o)
                              sound/emu2413.o (log)
c:/devkitpro/devkitpsp/bin/../lib/gcc/psp/4.1.2/../../../../psp/lib\libm.a(w_log10.o)
                              sound/emu2413.o (log10)
c:/devkitpro/devkitpsp/bin/../lib/gcc/psp/4.1.2/../../../../psp/lib\libm.a(w_pow.o)
                              sound/emu2413.o (pow)
c:/devkitpro/devkitpsp/bin/../lib/gcc/psp/4.1.2/../../../../psp/lib\libm.a(w_sqrt.o)
                              psp/vgm/In_vgm.o (sqrt)
c:/devkitpro/devkitpsp/bin/../lib/gcc/psp/4.1.2/../../../../psp/lib\libm.a(e_log.o)
                              c:/devkitpro/devkitpsp/bin/../lib/gcc/psp/4.1.2/../../../../psp/lib\libm.a(w_log.o) (__ieee754_log)
c:/devkitpro/devkitpsp/bin/../lib/gcc/psp/4.1.2/../../../../psp/lib\libm.a(e_log10.o)
                              c:/devkitpro/devkitpsp/bin/../lib/gcc/psp/4.1.2/../../../../psp/lib\libm.a(w_log10.o) (__ieee754_log10)
c:/devkitpro/devkitpsp/bin/../lib/gcc/psp/4.1.2/../../../../psp/lib\libm.a(e_pow.o)
                              c:/devkitpro/devkitpsp/bin/../lib/gcc/psp/4.1.2/../../../../psp/lib\libm.a(w_pow.o) (__ieee754_pow)
c:/devkitpro/devkitpsp/bin/../lib/gcc/psp/4.1.2/../../../../psp/lib\libm.a(e_rem_pio2.o)
                              c:/devkitpro/devkitpsp/bin/../lib/gcc/psp/4.1.2/../../../../psp/lib\libm.a(s_sin.o) (__ieee754_rem_pio2)
c:/devkitpro/devkitpsp/bin/../lib/gcc/psp/4.1.2/../../../../psp/lib\libm.a(e_sqrt.o)
                              c:/devkitpro/devkitpsp/bin/../lib/gcc/psp/4.1.2/../../../../psp/lib\libm.a(w_sqrt.o) (__ieee754_sqrt)
c:/devkitpro/devkitpsp/bin/../lib/gcc/psp/4.1.2/../../../../psp/lib\libm.a(k_cos.o)
                              c:/devkitpro/devkitpsp/bin/../lib/gcc/psp/4.1.2/../../../../psp/lib\libm.a(s_sin.o) (__kernel_cos)
c:/devkitpro/devkitpsp/bin/../lib/gcc/psp/4.1.2/../../../../psp/lib\libm.a(k_rem_pio2.o)
                              c:/devkitpro/devkitpsp/bin/../lib/gcc/psp/4.1.2/../../../../psp/lib\libm.a(e_rem_pio2.o) (__kernel_rem_pio2)
c:/devkitpro/devkitpsp/bin/../lib/gcc/psp/4.1.2/../../../../psp/lib\libm.a(k_sin.o)
                              c:/devkitpro/devkitpsp/bin/../lib/gcc/psp/4.1.2/../../../../psp/lib\libm.a(s_sin.o) (__kernel_sin)
c:/devkitpro/devkitpsp/bin/../lib/gcc/psp/4.1.2/../../../../psp/lib\libm.a(s_fabs.o)
                              c:/devkitpro/devkitpsp/bin/../lib/gcc/psp/4.1.2/../../../../psp/lib\libm.a(e_pow.o) (fabs)
c:/devkitpro/devkitpsp/bin/../lib/gcc/psp/4.1.2/../../../../psp/lib\libm.a(s_finite.o)
                              c:/devkitpro/devkitpsp/bin/../lib/gcc/psp/4.1.2/../../../../psp/lib\libm.a(w_pow.o) (finite)
c:/devkitpro/devkitpsp/bin/../lib/gcc/psp/4.1.2/../../../../psp/lib\libm.a(s_isnan.o)
                              c:/devkitpro/devkitpsp/bin/../lib/gcc/psp/4.1.2/../../../../psp/lib\libm.a(w_log.o) (isnan)
c:/devkitpro/devkitpsp/bin/../lib/gcc/psp/4.1.2/../../../../psp/lib\libm.a(s_lib_ver.o)
                              c:/devkitpro/devkitpsp/bin/../lib/gcc/psp/4.1.2/../../../../psp/lib\libm.a(w_log.o) (__fdlib_version)
c:/devkitpro/devkitpsp/bin/../lib/gcc/psp/4.1.2/../../../../psp/lib\libm.a(s_matherr.o)
                              c:/devkitpro/devkitpsp/bin/../lib/gcc/psp/4.1.2/../../../../psp/lib\libm.a(w_log.o) (matherr)
c:/devkitpro/devkitpsp/bin/../lib/gcc/psp/4.1.2/../../../../psp/lib\libm.a(s_rint.o)
                              c:/devkitpro/devkitpsp/bin/../lib/gcc/psp/4.1.2/../../../../psp/lib\libm.a(w_pow.o) (rint)
c:/devkitpro/devkitpsp/bin/../lib/gcc/psp/4.1.2/../../../../psp/lib\libm.a(s_scalbn.o)
                              c:/devkitpro/devkitpsp/bin/../lib/gcc/psp/4.1.2/../../../../psp/lib\libm.a(e_pow.o) (scalbn)
c:/devkitpro/devkitpsp/bin/../lib/gcc/psp/4.1.2/../../../../psp/lib\libm.a(s_copysign.o)
                              c:/devkitpro/devkitpsp/bin/../lib/gcc/psp/4.1.2/../../../../psp/lib\libm.a(s_scalbn.o) (copysign)
c:/devkitPro/devkitPSP/psp/sdk/lib\libpspdisplay.a(sceDisplay_0001.o)
                              c:/devkitPro/devkitPSP/psp/sdk/lib\libpspgu.a(sceGuDispBuffer.o) (sceDisplaySetMode)
c:/devkitPro/devkitPSP/psp/sdk/lib\libpspdisplay.a(sceDisplay_0006.o)
                              c:/devkitPro/devkitPSP/psp/sdk/lib\libpspgu.a(sceGuDispBuffer.o) (sceDisplaySetFrameBuf)
c:/devkitPro/devkitPSP/psp/sdk/lib\libpspdisplay.a(sceDisplay_0014.o)
                              c:/devkitPro/devkitPSP/psp/sdk/lib\libosl.a(oslib.o) (sceDisplayWaitVblankStart)
c:/devkitPro/devkitPSP/psp/sdk/lib\libpspdisplay.a(sceDisplay_0000.o)
                              c:/devkitPro/devkitPSP/psp/sdk/lib\libpspdisplay.a(sceDisplay_0001.o) (__stub_module_sceDisplay)
c:/devkitPro/devkitPSP/psp/sdk/lib\libpspge.a(sceGe_user_0002.o)
                              c:/devkitPro/devkitPSP/psp/sdk/lib\libpspgu.a(sceGuInit.o) (sceGeEdramGetAddr)
c:/devkitPro/devkitPSP/psp/sdk/lib\libpspge.a(sceGe_user_0008.o)
                              c:/devkitPro/devkitPSP/psp/sdk/lib\libpspgu.a(sceGuInit.o) (sceGeListEnQueue)
c:/devkitPro/devkitPSP/psp/sdk/lib\libpspge.a(sceGe_user_0011.o)
                              c:/devkitPro/devkitPSP/psp/sdk/lib\libpspgu.a(sceGuGetMemory.o) (sceGeListUpdateStallAddr)
c:/devkitPro/devkitPSP/psp/sdk/lib\libpspge.a(sceGe_user_0012.o)
                              c:/devkitPro/devkitPSP/psp/sdk/lib\libpspgu.a(sceGuInit.o) (sceGeListSync)
c:/devkitPro/devkitPSP/psp/sdk/lib\libpspge.a(sceGe_user_0013.o)
                              c:/devkitPro/devkitPSP/psp/sdk/lib\libpspgu.a(sceGuSync.o) (sceGeDrawSync)
c:/devkitPro/devkitPSP/psp/sdk/lib\libpspge.a(sceGe_user_0016.o)
                              c:/devkitPro/devkitPSP/psp/sdk/lib\libpspgu.a(sceGuInit.o) (sceGeSetCallback)
c:/devkitPro/devkitPSP/psp/sdk/lib\libpspge.a(sceGe_user_0017.o)
                              c:/devkitPro/devkitPSP/psp/sdk/lib\libpspgu.a(sceGuTerm.o) (sceGeUnsetCallback)
c:/devkitPro/devkitPSP/psp/sdk/lib\libpspge.a(sceGe_user_0000.o)
                              c:/devkitPro/devkitPSP/psp/sdk/lib\libpspge.a(sceGe_user_0002.o) (__stub_module_sceGe_user)
c:/devkitpro/devkitpsp/bin/../lib/gcc/psp/4.1.2/../../../../psp/lib\libc.a(abort.o)
                              c:/devkitPro/devkitPSP/psp/sdk/lib\libpng.a(pngread.o) (abort)
c:/devkitpro/devkitpsp/bin/../lib/gcc/psp/4.1.2/../../../../psp/lib\libc.a(atexit.o)
                              c:/devkitpro/devkitpsp/bin/../lib/gcc/psp/4.1.2/../../../../psp/lib/crt0.o (atexit)
c:/devkitpro/devkitpsp/bin/../lib/gcc/psp/4.1.2/../../../../psp/lib\libc.a(atof.o)
                              psp/config.o (atof)
c:/devkitpro/devkitpsp/bin/../lib/gcc/psp/4.1.2/../../../../psp/lib\libc.a(atoi.o)
                              psp/config.o (atoi)
c:/devkitpro/devkitpsp/bin/../lib/gcc/psp/4.1.2/../../../../psp/lib\libc.a(calloc.o)
                              sound/emu2413.o (calloc)
c:/devkitpro/devkitpsp/bin/../lib/gcc/psp/4.1.2/../../../../psp/lib\libc.a(callocr.o)
                              c:/devkitpro/devkitpsp/bin/../lib/gcc/psp/4.1.2/../../../../psp/lib\libc.a(calloc.o) (_calloc_r)
c:/devkitpro/devkitpsp/bin/../lib/gcc/psp/4.1.2/../../../../psp/lib\libc.a(ctype_.o)
                              gbcore/cheat.o (__ctype_ptr)
c:/devkitpro/devkitpsp/bin/../lib/gcc/psp/4.1.2/../../../../psp/lib\libc.a(errno.o)
                              psp/gzio.o (__errno)
c:/devkitpro/devkitpsp/bin/../lib/gcc/psp/4.1.2/../../../../psp/lib\libc.a(exit.o)
                              c:/devkitpro/devkitpsp/bin/../lib/gcc/psp/4.1.2/../../../../psp/lib/crt0.o (exit)
c:/devkitpro/devkitpsp/bin/../lib/gcc/psp/4.1.2/../../../../psp/lib\libc.a(fclose.o)
                              psp/sound.o (fclose)
c:/devkitpro/devkitpsp/bin/../lib/gcc/psp/4.1.2/../../../../psp/lib\libc.a(fdopen.o)
                              psp/gym/bzlib/bzlib.o (fdopen)
c:/devkitpro/devkitpsp/bin/../lib/gcc/psp/4.1.2/../../../../psp/lib\libc.a(fflush.o)
                              psp/gym/bzlib/bzlib.o (fflush)
c:/devkitpro/devkitpsp/bin/../lib/gcc/psp/4.1.2/../../../../psp/lib\libc.a(fgetc.o)
                              psp/gym/bzlib/bzlib.o (fgetc)
c:/devkitpro/devkitpsp/bin/../lib/gcc/psp/4.1.2/../../../../psp/lib\libc.a(fgets.o)
                              gbcore/cheat.o (fgets)
c:/devkitpro/devkitpsp/bin/../lib/gcc/psp/4.1.2/../../../../psp/lib\libc.a(findfp.o)
                              c:/devkitpro/devkitpsp/bin/../lib/gcc/psp/4.1.2/../../../../psp/lib\libc.a(fclose.o) (__sfp_lock_acquire)
c:/devkitpro/devkitpsp/bin/../lib/gcc/psp/4.1.2/../../../../psp/lib\libc.a(flags.o)
                              c:/devkitpro/devkitpsp/bin/../lib/gcc/psp/4.1.2/../../../../psp/lib\libc.a(fdopen.o) (__sflags)
c:/devkitpro/devkitpsp/bin/../lib/gcc/psp/4.1.2/../../../../psp/lib\libc.a(fopen.o)
                              fileio.o (fopen)
c:/devkitpro/devkitpsp/bin/../lib/gcc/psp/4.1.2/../../../../psp/lib\libc.a(fprintf.o)
                              psp/gym/bzlib/blocksort.o (fprintf)
c:/devkitpro/devkitpsp/bin/../lib/gcc/psp/4.1.2/../../../../psp/lib\libc.a(fputc.o)
                              psp/gym/bzlib/bzlib.o (fputc)
c:/devkitpro/devkitpsp/bin/../lib/gcc/psp/4.1.2/../../../../psp/lib\libc.a(fputs.o)
                              c:/devkitpro/devkitpsp/bin/../lib/gcc/psp/4.1.2/../../../../psp/lib\libstdc++.a(vterminate.o) (fputs)
c:/devkitpro/devkitpsp/bin/../lib/gcc/psp/4.1.2/../../../../psp/lib\libc.a(fread.o)
                              fileio.o (fread)
c:/devkitpro/devkitpsp/bin/../lib/gcc/psp/4.1.2/../../../../psp/lib\libc.a(freer.o)
                              c:/devkitpro/devkitpsp/bin/../lib/gcc/psp/4.1.2/../../../../psp/lib\libc.a(fclose.o) (_free_r)
c:/devkitpro/devkitpsp/bin/../lib/gcc/psp/4.1.2/../../../../psp/lib\libc.a(fseek.o)
                              c:/devkitpro/devkitpsp/bin/../lib/gcc/psp/4.1.2/../../../../psp/lib\libc.a(fopen.o) (_fseek_r)
c:/devkitpro/devkitpsp/bin/../lib/gcc/psp/4.1.2/../../../../psp/lib\libc.a(fstatr.o)
                              c:/devkitpro/devkitpsp/bin/../lib/gcc/psp/4.1.2/../../../../psp/lib\libc.a(fseek.o) (_fstat_r)
c:/devkitpro/devkitpsp/bin/../lib/gcc/psp/4.1.2/../../../../psp/lib\libc.a(ftell.o)
                              loadrom.o (ftell)
c:/devkitpro/devkitpsp/bin/../lib/gcc/psp/4.1.2/../../../../psp/lib\libc.a(fvwrite.o)
                              c:/devkitpro/devkitpsp/bin/../lib/gcc/psp/4.1.2/../../../../psp/lib\libc.a(fputs.o) (__sfvwrite)
c:/devkitpro/devkitpsp/bin/../lib/gcc/psp/4.1.2/../../../../psp/lib\libc.a(fwalk.o)
                              c:/devkitpro/devkitpsp/bin/../lib/gcc/psp/4.1.2/../../../../psp/lib\libc.a(fflush.o) (_fwalk)
c:/devkitpro/devkitpsp/bin/../lib/gcc/psp/4.1.2/../../../../psp/lib\libc.a(fwrite.o)
                              unzip/ioapi.o (fwrite)
c:/devkitpro/devkitpsp/bin/../lib/gcc/psp/4.1.2/../../../../psp/lib\libc.a(gmtime.o)
                              c:/devkitPro/devkitPSP/psp/sdk/lib\libpng.a(pngwrite.o) (gmtime)
c:/devkitpro/devkitpsp/bin/../lib/gcc/psp/4.1.2/../../../../psp/lib\libc.a(gmtime_r.o)
                              c:/devkitpro/devkitpsp/bin/../lib/gcc/psp/4.1.2/../../../../psp/lib\libc.a(gmtime.o) (gmtime_r)
c:/devkitpro/devkitpsp/bin/../lib/gcc/psp/4.1.2/../../../../psp/lib\libc.a(impure.o)
                              psp/gym/bzlib/blocksort.o (_impure_ptr)
c:/devkitpro/devkitpsp/bin/../lib/gcc/psp/4.1.2/../../../../psp/lib\libc.a(iprintf.o)
                              psp/deflate.o (iprintf)
c:/devkitpro/devkitpsp/bin/../lib/gcc/psp/4.1.2/../../../../psp/lib\libc.a(lcltime.o)
                              psp/menuplus.o (localtime)
c:/devkitpro/devkitpsp/bin/../lib/gcc/psp/4.1.2/../../../../psp/lib\libc.a(lcltime_r.o)
                              c:/devkitpro/devkitpsp/bin/../lib/gcc/psp/4.1.2/../../../../psp/lib\libc.a(lcltime.o) (localtime_r)
c:/devkitpro/devkitpsp/bin/../lib/gcc/psp/4.1.2/../../../../psp/lib\libc.a(makebuf.o)
                              c:/devkitpro/devkitpsp/bin/../lib/gcc/psp/4.1.2/../../../../psp/lib\libc.a(fseek.o) (__smakebuf)
c:/devkitpro/devkitpsp/bin/../lib/gcc/psp/4.1.2/../../../../psp/lib\libc.a(malign.o)
                              c:/devkitPro/devkitPSP/psp/sdk/lib\libosl.a(drawing.o) (memalign)
c:/devkitpro/devkitpsp/bin/../lib/gcc/psp/4.1.2/../../../../psp/lib\libc.a(malignr.o)
                              c:/devkitpro/devkitpsp/bin/../lib/gcc/psp/4.1.2/../../../../psp/lib\libc.a(malign.o) (_memalign_r)
c:/devkitpro/devkitpsp/bin/../lib/gcc/psp/4.1.2/../../../../psp/lib\libc.a(malloc.o)
                              cpu/z80.o (free)
c:/devkitpro/devkitpsp/bin/../lib/gcc/psp/4.1.2/../../../../psp/lib\libc.a(mallocr.o)
                              c:/devkitpro/devkitpsp/bin/../lib/gcc/psp/4.1.2/../../../../psp/lib\libc.a(callocr.o) (_malloc_r)
c:/devkitpro/devkitpsp/bin/../lib/gcc/psp/4.1.2/../../../../psp/lib\libc.a(memchr.o)
                              c:/devkitpro/devkitpsp/bin/../lib/gcc/psp/4.1.2/../../../../psp/lib\libc.a(fgets.o) (memchr)
c:/devkitpro/devkitpsp/bin/../lib/gcc/psp/4.1.2/../../../../psp/lib\libc.a(memcmp.o)
                              gbcore/rom.o (memcmp)
c:/devkitpro/devkitpsp/bin/../lib/gcc/psp/4.1.2/../../../../psp/lib\libc.a(memcpy.o)
                              gbcore/gb.o (memcpy)
c:/devkitpro/devkitpsp/bin/../lib/gcc/psp/4.1.2/../../../../psp/lib\libc.a(memmove.o)
                              psp/menuplus2.o (memmove)
c:/devkitpro/devkitpsp/bin/../lib/gcc/psp/4.1.2/../../../../psp/lib\libc.a(memset.o)
                              gbcore/apu.o (memset)
c:/devkitpro/devkitpsp/bin/../lib/gcc/psp/4.1.2/../../../../psp/lib\libc.a(mktm_r.o)
                              c:/devkitpro/devkitpsp/bin/../lib/gcc/psp/4.1.2/../../../../psp/lib\libc.a(gmtime_r.o) (_mktm_r)
c:/devkitpro/devkitpsp/bin/../lib/gcc/psp/4.1.2/../../../../psp/lib\libc.a(mlock.o)
                              c:/devkitpro/devkitpsp/bin/../lib/gcc/psp/4.1.2/../../../../psp/lib\libc.a(freer.o) (__malloc_unlock)
c:/devkitpro/devkitpsp/bin/../lib/gcc/psp/4.1.2/../../../../psp/lib\libc.a(openr.o)
                              c:/devkitpro/devkitpsp/bin/../lib/gcc/psp/4.1.2/../../../../psp/lib\libc.a(fopen.o) (_open_r)
c:/devkitpro/devkitpsp/bin/../lib/gcc/psp/4.1.2/../../../../psp/lib\libc.a(rand.o)
                              psp/sound.o (srand)
c:/devkitpro/devkitpsp/bin/../lib/gcc/psp/4.1.2/../../../../psp/lib\libc.a(realloc.o)
                              psp/menuplus2.o (realloc)
c:/devkitpro/devkitpsp/bin/../lib/gcc/psp/4.1.2/../../../../psp/lib\libc.a(reallocr.o)
                              c:/devkitpro/devkitpsp/bin/../lib/gcc/psp/4.1.2/../../../../psp/lib\libc.a(fvwrite.o) (_realloc_r)
c:/devkitpro/devkitpsp/bin/../lib/gcc/psp/4.1.2/../../../../psp/lib\libc.a(reent.o)
                              c:/devkitpro/devkitpsp/bin/../lib/gcc/psp/4.1.2/../../../../psp/lib\libc.a(fstatr.o) (errno)
c:/devkitpro/devkitpsp/bin/../lib/gcc/psp/4.1.2/../../../../psp/lib\libc.a(refill.o)
                              c:/devkitpro/devkitpsp/bin/../lib/gcc/psp/4.1.2/../../../../psp/lib\libc.a(fgets.o) (__srefill)
c:/devkitpro/devkitpsp/bin/../lib/gcc/psp/4.1.2/../../../../psp/lib\libc.a(rget.o)
                              c:/devkitpro/devkitpsp/bin/../lib/gcc/psp/4.1.2/../../../../psp/lib\libc.a(fgetc.o) (__srget)
c:/devkitpro/devkitpsp/bin/../lib/gcc/psp/4.1.2/../../../../psp/lib\libc.a(sbrkr.o)
                              c:/devkitpro/devkitpsp/bin/../lib/gcc/psp/4.1.2/../../../../psp/lib\libc.a(freer.o) (_sbrk_r)
c:/devkitpro/devkitpsp/bin/../lib/gcc/psp/4.1.2/../../../../psp/lib\libc.a(setjmp.o)
                              c:/devkitPro/devkitPSP/psp/sdk/lib\libosl.a(oslLoadImageFilePNG.o) (setjmp)
c:/devkitpro/devkitpsp/bin/../lib/gcc/psp/4.1.2/../../../../psp/lib\libc.a(signal.o)
                              cpu/z80.o (raise)
c:/devkitpro/devkitpsp/bin/../lib/gcc/psp/4.1.2/../../../../psp/lib\libc.a(signalr.o)
                              c:/devkitpro/devkitpsp/bin/../lib/gcc/psp/4.1.2/../../../../psp/lib\libc.a(signal.o) (_getpid_r)
c:/devkitpro/devkitpsp/bin/../lib/gcc/psp/4.1.2/../../../../psp/lib\libc.a(sprintf.o)
                              gbcore/gb.o (sprintf)
c:/devkitpro/devkitpsp/bin/../lib/gcc/psp/4.1.2/../../../../psp/lib\libc.a(stdio.o)
                              c:/devkitpro/devkitpsp/bin/../lib/gcc/psp/4.1.2/../../../../psp/lib\libc.a(fdopen.o) (__sclose)
c:/devkitpro/devkitpsp/bin/../lib/gcc/psp/4.1.2/../../../../psp/lib\libc.a(strcasecmp.o)
                              psp/menuplus2.o (strcasecmp)
c:/devkitpro/devkitpsp/bin/../lib/gcc/psp/4.1.2/../../../../psp/lib\libc.a(strcat.o)
                              psp/menuplus2.o (strcat)
c:/devkitpro/devkitpsp/bin/../lib/gcc/psp/4.1.2/../../../../psp/lib\libc.a(strchr.o)
                              psp/sound.o (strchr)
c:/devkitpro/devkitpsp/bin/../lib/gcc/psp/4.1.2/../../../../psp/lib\libc.a(strcmp.o)
                              psp/SMS.o (strcmp)
c:/devkitpro/devkitpsp/bin/../lib/gcc/psp/4.1.2/../../../../psp/lib\libc.a(strcpy.o)
                              gbcore/cheat.o (strcpy)
c:/devkitpro/devkitpsp/bin/../lib/gcc/psp/4.1.2/../../../../psp/lib\libc.a(strerror.o)
                              psp/gzio.o (strerror)
c:/devkitpro/devkitpsp/bin/../lib/gcc/psp/4.1.2/../../../../psp/lib\libc.a(strlen.o)
                              c:/devkitpro/devkitpsp/bin/../lib/gcc/psp/4.1.2/../../../../psp/lib/crt0.o (strlen)
c:/devkitpro/devkitpsp/bin/../lib/gcc/psp/4.1.2/../../../../psp/lib\libc.a(strncmp.o)
                              psp/menuplus2.o (strncmp)
c:/devkitpro/devkitpsp/bin/../lib/gcc/psp/4.1.2/../../../../psp/lib\libc.a(strncpy.o)
                              c:/devkitPro/devkitPSP/psp/sdk/lib\libpng.a(pngerror.o) (strncpy)
c:/devkitpro/devkitpsp/bin/../lib/gcc/psp/4.1.2/../../../../psp/lib\libc.a(strrchr.o)
                              psp/menuplus2.o (strrchr)
c:/devkitpro/devkitpsp/bin/../lib/gcc/psp/4.1.2/../../../../psp/lib\libc.a(strtod.o)
                              c:/devkitPro/devkitPSP/psp/sdk/lib\libpng.a(pngrutil.o) (strtod)
c:/devkitpro/devkitpsp/bin/../lib/gcc/psp/4.1.2/../../../../psp/lib\libc.a(strtol.o)
                              c:/devkitpro/devkitpsp/bin/../lib/gcc/psp/4.1.2/../../../../psp/lib\libc.a(atoi.o) (_strtol_r)
c:/devkitpro/devkitpsp/bin/../lib/gcc/psp/4.1.2/../../../../psp/lib\libc.a(sysgettod.o)
                              c:/devkitPro/devkitPSP/psp/sdk/lib\libosl.a(oslib.o) (gettimeofday)
c:/devkitpro/devkitpsp/bin/../lib/gcc/psp/4.1.2/../../../../psp/lib\libc.a(time.o)
                              psp/gameboy_render.o (time)
c:/devkitpro/devkitpsp/bin/../lib/gcc/psp/4.1.2/../../../../psp/lib\libc.a(tzlock.o)
                              c:/devkitpro/devkitpsp/bin/../lib/gcc/psp/4.1.2/../../../../psp/lib\libc.a(mktm_r.o) (__tz_lock)
c:/devkitpro/devkitpsp/bin/../lib/gcc/psp/4.1.2/../../../../psp/lib\libc.a(tzvars.o)
                              c:/devkitpro/devkitpsp/bin/../lib/gcc/psp/4.1.2/../../../../psp/lib\libc.a(mktm_r.o) (_daylight)
c:/devkitpro/devkitpsp/bin/../lib/gcc/psp/4.1.2/../../../../psp/lib\libc.a(u_strerr.o)
                              c:/devkitpro/devkitpsp/bin/../lib/gcc/psp/4.1.2/../../../../psp/lib\libc.a(strerror.o) (_user_strerror)
c:/devkitpro/devkitpsp/bin/../lib/gcc/psp/4.1.2/../../../../psp/lib\libc.a(ungetc.o)
                              psp/gym/bzlib/bzlib.o (ungetc)
c:/devkitpro/devkitpsp/bin/../lib/gcc/psp/4.1.2/../../../../psp/lib\libc.a(vfiprintf.o)
                              c:/devkitpro/devkitpsp/bin/../lib/gcc/psp/4.1.2/../../../../psp/lib\libc.a(iprintf.o) (_vfiprintf_r)
c:/devkitpro/devkitpsp/bin/../lib/gcc/psp/4.1.2/../../../../psp/lib\libc.a(vsnprintf.o)
                              psp/gzio.o (vsnprintf)
c:/devkitpro/devkitpsp/bin/../lib/gcc/psp/4.1.2/../../../../psp/lib\libc.a(vxprintf.o)
                              c:/devkitpro/devkitpsp/bin/../lib/gcc/psp/4.1.2/../../../../psp/lib\libc.a(fprintf.o) (vxprintf)
c:/devkitpro/devkitpsp/bin/../lib/gcc/psp/4.1.2/../../../../psp/lib\libc.a(wbuf.o)
                              c:/devkitpro/devkitpsp/bin/../lib/gcc/psp/4.1.2/../../../../psp/lib\libc.a(fputc.o) (__swbuf)
c:/devkitpro/devkitpsp/bin/../lib/gcc/psp/4.1.2/../../../../psp/lib\libc.a(wcrtomb.o)
                              c:/devkitpro/devkitpsp/bin/../lib/gcc/psp/4.1.2/../../../../psp/lib\libc.a(vfiprintf.o) (_wcrtomb_r)
c:/devkitpro/devkitpsp/bin/../lib/gcc/psp/4.1.2/../../../../psp/lib\libc.a(wcsrtombs.o)
                              c:/devkitpro/devkitpsp/bin/../lib/gcc/psp/4.1.2/../../../../psp/lib\libc.a(vfiprintf.o) (_wcsrtombs_r)
c:/devkitpro/devkitpsp/bin/../lib/gcc/psp/4.1.2/../../../../psp/lib\libc.a(wctomb_r.o)
                              c:/devkitpro/devkitpsp/bin/../lib/gcc/psp/4.1.2/../../../../psp/lib\libc.a(wcrtomb.o) (_wctomb_r)
c:/devkitpro/devkitpsp/bin/../lib/gcc/psp/4.1.2/../../../../psp/lib\libc.a(writer.o)
                              c:/devkitpro/devkitpsp/bin/../lib/gcc/psp/4.1.2/../../../../psp/lib\libc.a(stdio.o) (_write_r)
c:/devkitpro/devkitpsp/bin/../lib/gcc/psp/4.1.2/../../../../psp/lib\libc.a(wsetup.o)
                              c:/devkitpro/devkitpsp/bin/../lib/gcc/psp/4.1.2/../../../../psp/lib\libc.a(fvwrite.o) (__swsetup)
c:/devkitpro/devkitpsp/bin/../lib/gcc/psp/4.1.2/../../../../psp/lib\libc.a(_Exit.o)
                              c:/devkitpro/devkitpsp/bin/../lib/gcc/psp/4.1.2/../../../../psp/lib\libc.a(abort.o) (_exit)
c:/devkitpro/devkitpsp/bin/../lib/gcc/psp/4.1.2/../../../../psp/lib\libc.a(__atexit.o)
                              c:/devkitpro/devkitpsp/bin/../lib/gcc/psp/4.1.2/../../../../psp/lib\libc.a(atexit.o) (__register_exitproc)
c:/devkitpro/devkitpsp/bin/../lib/gcc/psp/4.1.2/../../../../psp/lib\libc.a(__call_atexit.o)
                              c:/devkitpro/devkitpsp/bin/../lib/gcc/psp/4.1.2/../../../../psp/lib\libc.a(exit.o) (__call_exitprocs)
c:/devkitpro/devkitpsp/bin/../lib/gcc/psp/4.1.2/../../../../psp/lib\libc.a(__fout.o)
                              c:/devkitpro/devkitpsp/bin/../lib/gcc/psp/4.1.2/../../../../psp/lib\libc.a(fprintf.o) (__fout)
c:/devkitpro/devkitpsp/bin/../lib/gcc/psp/4.1.2/../../../../psp/lib\libc.a(__psp_set_errno.o)
                              c:/devkitpro/devkitpsp/bin/../lib/gcc/psp/4.1.2/../../../../psp/lib\libc.a(time.o) (__psp_set_errno)
c:/devkitpro/devkitpsp/bin/../lib/gcc/psp/4.1.2/../../../../psp/lib\libc.a(__sout.o)
                              c:/devkitpro/devkitpsp/bin/../lib/gcc/psp/4.1.2/../../../../psp/lib\libc.a(sprintf.o) (__sout)
c:/devkitpro/devkitpsp/bin/../lib/gcc/psp/4.1.2/../../../../psp/lib\libc.a(_fstat.o)
                              c:/devkitpro/devkitpsp/bin/../lib/gcc/psp/4.1.2/../../../../psp/lib\libc.a(fstatr.o) (_fstat)
c:/devkitpro/devkitpsp/bin/../lib/gcc/psp/4.1.2/../../../../psp/lib\libc.a(_getpid.o)
                              c:/devkitpro/devkitpsp/bin/../lib/gcc/psp/4.1.2/../../../../psp/lib\libc.a(signalr.o) (_getpid)
c:/devkitpro/devkitpsp/bin/../lib/gcc/psp/4.1.2/../../../../psp/lib\libc.a(_gettimeofday.o)
                              c:/devkitpro/devkitpsp/bin/../lib/gcc/psp/4.1.2/../../../../psp/lib\libc.a(sysgettod.o) (_gettimeofday)
c:/devkitpro/devkitpsp/bin/../lib/gcc/psp/4.1.2/../../../../psp/lib\libc.a(_kill.o)
                              c:/devkitpro/devkitpsp/bin/../lib/gcc/psp/4.1.2/../../../../psp/lib\libc.a(signalr.o) (_kill)
c:/devkitpro/devkitpsp/bin/../lib/gcc/psp/4.1.2/../../../../psp/lib\libc.a(_open.o)
                              c:/devkitpro/devkitpsp/bin/../lib/gcc/psp/4.1.2/../../../../psp/lib\libc.a(openr.o) (_open)
c:/devkitpro/devkitpsp/bin/../lib/gcc/psp/4.1.2/../../../../psp/lib\libc.a(_sbrk.o)
                              c:/devkitpro/devkitpsp/bin/../lib/gcc/psp/4.1.2/../../../../psp/lib\libc.a(_Exit.o) (__psp_free_heap)
c:/devkitpro/devkitpsp/bin/../lib/gcc/psp/4.1.2/../../../../psp/lib\libc.a(_write.o)
                              c:/devkitpro/devkitpsp/bin/../lib/gcc/psp/4.1.2/../../../../psp/lib\libc.a(writer.o) (_write)
c:/devkitpro/devkitpsp/bin/../lib/gcc/psp/4.1.2/../../../../psp/lib\libc.a(closer.o)
                              c:/devkitpro/devkitpsp/bin/../lib/gcc/psp/4.1.2/../../../../psp/lib\libc.a(stdio.o) (_close_r)
c:/devkitpro/devkitpsp/bin/../lib/gcc/psp/4.1.2/../../../../psp/lib\libc.a(fcntlr.o)
                              c:/devkitpro/devkitpsp/bin/../lib/gcc/psp/4.1.2/../../../../psp/lib\libc.a(fdopen.o) (_fcntl_r)
c:/devkitpro/devkitpsp/bin/../lib/gcc/psp/4.1.2/../../../../psp/lib\libc.a(fdman.o)
                              c:/devkitpro/devkitpsp/bin/../lib/gcc/psp/4.1.2/../../../../psp/lib\libc.a(_fstat.o) (__psp_descriptormap)
c:/devkitpro/devkitpsp/bin/../lib/gcc/psp/4.1.2/../../../../psp/lib\libc.a(gettzinfo.o)
                              c:/devkitpro/devkitpsp/bin/../lib/gcc/psp/4.1.2/../../../../psp/lib\libc.a(mktm_r.o) (__gettzinfo)
c:/devkitpro/devkitpsp/bin/../lib/gcc/psp/4.1.2/../../../../psp/lib\libc.a(interrupt.o)
                              c:/devkitpro/devkitpsp/bin/../lib/gcc/psp/4.1.2/../../../../psp/lib\libc.a(mlock.o) (pspDisableInterrupts)
c:/devkitpro/devkitpsp/bin/../lib/gcc/psp/4.1.2/../../../../psp/lib\libc.a(isatty.o)
                              c:/devkitpro/devkitpsp/bin/../lib/gcc/psp/4.1.2/../../../../psp/lib\libc.a(makebuf.o) (isatty)
c:/devkitpro/devkitpsp/bin/../lib/gcc/psp/4.1.2/../../../../psp/lib\libc.a(isdigit.o)
                              c:/devkitpro/devkitpsp/bin/../lib/gcc/psp/4.1.2/../../../../psp/lib\libc.a(vxprintf.o) (isdigit)
c:/devkitpro/devkitpsp/bin/../lib/gcc/psp/4.1.2/../../../../psp/lib\libc.a(locale.o)
                              c:/devkitpro/devkitpsp/bin/../lib/gcc/psp/4.1.2/../../../../psp/lib\libc.a(wctomb_r.o) (__lc_ctype)
c:/devkitpro/devkitpsp/bin/../lib/gcc/psp/4.1.2/../../../../psp/lib\libc.a(lseekr.o)
                              c:/devkitpro/devkitpsp/bin/../lib/gcc/psp/4.1.2/../../../../psp/lib\libc.a(stdio.o) (_lseek_r)
c:/devkitpro/devkitpsp/bin/../lib/gcc/psp/4.1.2/../../../../psp/lib\libc.a(mprec.o)
                              c:/devkitpro/devkitpsp/bin/../lib/gcc/psp/4.1.2/../../../../psp/lib\libc.a(strtod.o) (_Bfree)
c:/devkitpro/devkitpsp/bin/../lib/gcc/psp/4.1.2/../../../../psp/lib\libc.a(pipe.o)
                              c:/devkitpro/devkitpsp/bin/../lib/gcc/psp/4.1.2/../../../../psp/lib\libc.a(_write.o) (__psp_pipe_nonblocking_write)
c:/devkitpro/devkitpsp/bin/../lib/gcc/psp/4.1.2/../../../../psp/lib\libc.a(pspcwd.o)
                              c:/devkitpro/devkitpsp/bin/../lib/gcc/psp/4.1.2/../../../../psp/lib\libc.a(_open.o) (__psp_path_absolute)
c:/devkitpro/devkitpsp/bin/../lib/gcc/psp/4.1.2/../../../../psp/lib\libc.a(readr.o)
                              c:/devkitpro/devkitpsp/bin/../lib/gcc/psp/4.1.2/../../../../psp/lib\libc.a(stdio.o) (_read_r)
c:/devkitpro/devkitpsp/bin/../lib/gcc/psp/4.1.2/../../../../psp/lib\libc.a(s_nan.o)
                              c:/devkitpro/devkitpsp/bin/../lib/gcc/psp/4.1.2/../../../../psp/lib\libc.a(strtod.o) (nan)
c:/devkitpro/devkitpsp/bin/../lib/gcc/psp/4.1.2/../../../../psp/lib\libc.a(sf_nan.o)
                              c:/devkitpro/devkitpsp/bin/../lib/gcc/psp/4.1.2/../../../../psp/lib\libc.a(strtod.o) (nanf)
c:/devkitpro/devkitpsp/bin/../lib/gcc/psp/4.1.2/../../../../psp/lib\libc.a(strdup.o)
                              c:/devkitpro/devkitpsp/bin/../lib/gcc/psp/4.1.2/../../../../psp/lib\libc.a(_open.o) (strdup)
c:/devkitpro/devkitpsp/bin/../lib/gcc/psp/4.1.2/../../../../psp/lib\libc.a(strdup_r.o)
                              c:/devkitpro/devkitpsp/bin/../lib/gcc/psp/4.1.2/../../../../psp/lib\libc.a(strdup.o) (_strdup_r)
c:/devkitpro/devkitpsp/bin/../lib/gcc/psp/4.1.2/../../../../psp/lib\libc.a(sysstat.o)
                              c:/devkitpro/devkitpsp/bin/../lib/gcc/psp/4.1.2/../../../../psp/lib\libc.a(_fstat.o) (stat)
c:/devkitpro/devkitpsp/bin/../lib/gcc/psp/4.1.2/../../../../psp/lib\libc.a(_close.o)
                              c:/devkitpro/devkitpsp/bin/../lib/gcc/psp/4.1.2/../../../../psp/lib\libc.a(closer.o) (_close)
c:/devkitpro/devkitpsp/bin/../lib/gcc/psp/4.1.2/../../../../psp/lib\libc.a(_fcntl.o)
                              c:/devkitpro/devkitpsp/bin/../lib/gcc/psp/4.1.2/../../../../psp/lib\libc.a(fcntlr.o) (_fcntl)
c:/devkitpro/devkitpsp/bin/../lib/gcc/psp/4.1.2/../../../../psp/lib\libc.a(_lseek.o)
                              c:/devkitpro/devkitpsp/bin/../lib/gcc/psp/4.1.2/../../../../psp/lib\libc.a(lseekr.o) (_lseek)
c:/devkitpro/devkitpsp/bin/../lib/gcc/psp/4.1.2/../../../../psp/lib\libc.a(_read.o)
                              c:/devkitpro/devkitpsp/bin/../lib/gcc/psp/4.1.2/../../../../psp/lib\libc.a(readr.o) (_read)
c:/devkitpro/devkitpsp/bin/../lib/gcc/psp/4.1.2/../../../../psp/lib\libc.a(_stat.o)
                              c:/devkitpro/devkitpsp/bin/../lib/gcc/psp/4.1.2/../../../../psp/lib\libc.a(sysstat.o) (_stat)
c:/devkitpro/devkitpsp/bin/../lib/gcc/psp/4.1.2/../../../../psp/lib\libc.a(chdir.o)
                              c:/devkitpro/devkitpsp/bin/../lib/gcc/psp/4.1.2/../../../../psp/lib\libc.a(pspcwd.o) (chdir)
c:/devkitpro/devkitpsp/bin/../lib/gcc/psp/4.1.2/../../../../psp/lib\libc.a(mktime.o)
                              c:/devkitpro/devkitpsp/bin/../lib/gcc/psp/4.1.2/../../../../psp/lib\libc.a(_stat.o) (mktime)
c:/devkitpro/devkitpsp/bin/../lib/gcc/psp/4.1.2/../../../../psp/lib\libc.a(setsockopt.o)
                              c:/devkitpro/devkitpsp/bin/../lib/gcc/psp/4.1.2/../../../../psp/lib\libc.a(_fcntl.o) (setsockopt)
c:/devkitpro/devkitpsp/bin/../lib/gcc/psp/4.1.2/../../../../psp/lib\libc.a(div.o)
                              c:/devkitpro/devkitpsp/bin/../lib/gcc/psp/4.1.2/../../../../psp/lib\libc.a(mktime.o) (div)
c:/devkitPro/devkitPSP/psp/sdk/lib\libpspnet_inet.a(sceNetInet_0010.o)
                              c:/devkitpro/devkitpsp/bin/../lib/gcc/psp/4.1.2/../../../../psp/lib\libc.a(setsockopt.o) (sceNetInetGetsockopt)
c:/devkitPro/devkitPSP/psp/sdk/lib\libpspnet_inet.a(sceNetInet_0020.o)
                              c:/devkitpro/devkitpsp/bin/../lib/gcc/psp/4.1.2/../../../../psp/lib\libc.a(setsockopt.o) (sceNetInetSetsockopt)
c:/devkitPro/devkitPSP/psp/sdk/lib\libpspnet_inet.a(sceNetInet_0024.o)
                              c:/devkitpro/devkitpsp/bin/../lib/gcc/psp/4.1.2/../../../../psp/lib\libc.a(setsockopt.o) (sceNetInetGetErrno)
c:/devkitPro/devkitPSP/psp/sdk/lib\libpspnet_inet.a(sceNetInet_0000.o)
                              c:/devkitPro/devkitPSP/psp/sdk/lib\libpspnet_inet.a(sceNetInet_0010.o) (__stub_module_sceNetInet)
c:/devkitPro/devkitPSP/psp/sdk/lib\libpsputility.a(sceUtility_0031.o)
                              psp/menuplus.o (sceUtilityGetSystemParamInt)
c:/devkitPro/devkitPSP/psp/sdk/lib\libpsputility.a(sceUtility_0000.o)
                              c:/devkitPro/devkitPSP/psp/sdk/lib\libpsputility.a(sceUtility_0031.o) (__stub_module_sceUtility)
c:/devkitPro/devkitPSP/psp/sdk/lib\libpspuser.a(IoFileMgrForUser_0007.o)
                              gbcore/cpu.o (sceIoClose)
c:/devkitPro/devkitPSP/psp/sdk/lib\libpspuser.a(IoFileMgrForUser_0009.o)
                              gbcore/cpu.o (sceIoOpen)
c:/devkitPro/devkitPSP/psp/sdk/lib\libpspuser.a(IoFileMgrForUser_0011.o)
                              gbcore/cpu.o (sceIoRead)
c:/devkitPro/devkitPSP/psp/sdk/lib\libpspuser.a(IoFileMgrForUser_0013.o)
                              c:/devkitPro/devkitPSP/psp/sdk/lib\libosl.a(vfsFile.o) (sceIoWrite)
c:/devkitPro/devkitPSP/psp/sdk/lib\libpspuser.a(IoFileMgrForUser_0015.o)
                              c:/devkitpro/devkitpsp/bin/../lib/gcc/psp/4.1.2/../../../../psp/lib\libc.a(_fstat.o) (sceIoLseek)
c:/devkitPro/devkitPSP/psp/sdk/lib\libpspuser.a(IoFileMgrForUser_0017.o)
                              c:/devkitPro/devkitPSP/psp/sdk/lib\libosl.a(vfsFile.o) (sceIoLseek32)
c:/devkitPro/devkitPSP/psp/sdk/lib\libpspuser.a(IoFileMgrForUser_0021.o)
                              psp/menuplus.o (sceIoDopen)
c:/devkitPro/devkitPSP/psp/sdk/lib\libpspuser.a(IoFileMgrForUser_0022.o)
                              psp/menuplus2.o (sceIoDread)
c:/devkitPro/devkitPSP/psp/sdk/lib\libpspuser.a(IoFileMgrForUser_0023.o)
                              psp/menuplus.o (sceIoDclose)
c:/devkitPro/devkitPSP/psp/sdk/lib\libpspuser.a(IoFileMgrForUser_0024.o)
                              psp/menuplus.o (sceIoRemove)
c:/devkitPro/devkitPSP/psp/sdk/lib\libpspuser.a(IoFileMgrForUser_0025.o)
                              psp/menuplus.o (sceIoMkdir)
c:/devkitPro/devkitPSP/psp/sdk/lib\libpspuser.a(IoFileMgrForUser_0027.o)
                              c:/devkitpro/devkitpsp/bin/../lib/gcc/psp/4.1.2/../../../../psp/lib\libc.a(chdir.o) (sceIoChdir)
c:/devkitPro/devkitPSP/psp/sdk/lib\libpspuser.a(IoFileMgrForUser_0029.o)
                              psp/menuplus.o (sceIoGetstat)
c:/devkitPro/devkitPSP/psp/sdk/lib\libpspuser.a(ModuleMgrForUser_0002.o)
                              psp/usb.o (sceKernelLoadModule)
c:/devkitPro/devkitPSP/psp/sdk/lib\libpspuser.a(ModuleMgrForUser_0005.o)
                              psp/usb.o (sceKernelStartModule)
c:/devkitPro/devkitPSP/psp/sdk/lib\libpspuser.a(ModuleMgrForUser_0008.o)
                              c:/devkitpro/devkitpsp/bin/../lib/gcc/psp/4.1.2/../../../../psp/lib\libc.a(_Exit.o) (sceKernelSelfStopUnloadModule)
c:/devkitPro/devkitPSP/psp/sdk/lib\libpspuser.a(StdioForUser_0007.o)
                              c:/devkitpro/devkitpsp/bin/../lib/gcc/psp/4.1.2/../../../../psp/lib\libc.a(fdman.o) (sceKernelStdin)
c:/devkitPro/devkitPSP/psp/sdk/lib\libpspuser.a(StdioForUser_0008.o)
                              c:/devkitpro/devkitpsp/bin/../lib/gcc/psp/4.1.2/../../../../psp/lib\libc.a(fdman.o) (sceKernelStdout)
c:/devkitPro/devkitPSP/psp/sdk/lib\libpspuser.a(StdioForUser_0009.o)
                              c:/devkitpro/devkitpsp/bin/../lib/gcc/psp/4.1.2/../../../../psp/lib\libc.a(fdman.o) (sceKernelStderr)
c:/devkitPro/devkitPSP/psp/sdk/lib\libpspuser.a(SysMemUserForUser_0001.o)
                              c:/devkitpro/devkitpsp/bin/../lib/gcc/psp/4.1.2/../../../../psp/lib\libc.a(_sbrk.o) (sceKernelMaxFreeMemSize)
c:/devkitPro/devkitPSP/psp/sdk/lib\libpspuser.a(SysMemUserForUser_0003.o)
                              c:/devkitpro/devkitpsp/bin/../lib/gcc/psp/4.1.2/../../../../psp/lib\libc.a(_sbrk.o) (sceKernelAllocPartitionMemory)
c:/devkitPro/devkitPSP/psp/sdk/lib\libpspuser.a(SysMemUserForUser_0004.o)
                              c:/devkitpro/devkitpsp/bin/../lib/gcc/psp/4.1.2/../../../../psp/lib\libc.a(_sbrk.o) (sceKernelFreePartitionMemory)
c:/devkitPro/devkitPSP/psp/sdk/lib\libpspuser.a(SysMemUserForUser_0005.o)
                              c:/devkitpro/devkitpsp/bin/../lib/gcc/psp/4.1.2/../../../../psp/lib\libc.a(_sbrk.o) (sceKernelGetBlockHeadAddr)
c:/devkitPro/devkitPSP/psp/sdk/lib\libpspuser.a(ThreadManForUser_0005.o)
                              c:/devkitPro/devkitPSP/psp/sdk/lib\libosl.a(oslib.o) (sceKernelCreateCallback)
c:/devkitPro/devkitPSP/psp/sdk/lib\libpspuser.a(ThreadManForUser_0013.o)
                              c:/devkitPro/devkitPSP/psp/sdk/lib\libosl.a(oslib.o) (sceKernelSleepThreadCB)
c:/devkitPro/devkitPSP/psp/sdk/lib\libpspuser.a(ThreadManForUser_0018.o)
                              psp/sound.o (sceKernelWaitThreadEnd)
c:/devkitPro/devkitPSP/psp/sdk/lib\libpspuser.a(ThreadManForUser_0032.o)
                              c:/devkitPro/devkitPSP/psp/sdk/lib\libpspgu.a(sceGuInit.o) (sceKernelCreateEventFlag)
c:/devkitPro/devkitPSP/psp/sdk/lib\libpspuser.a(ThreadManForUser_0033.o)
                              c:/devkitPro/devkitPSP/psp/sdk/lib\libpspgu.a(sceGuTerm.o) (sceKernelDeleteEventFlag)
c:/devkitPro/devkitPSP/psp/sdk/lib\libpspuser.a(ThreadManForUser_0034.o)
                              c:/devkitPro/devkitPSP/psp/sdk/lib\libpspgu.a(callbackSig.o) (sceKernelSetEventFlag)
c:/devkitPro/devkitPSP/psp/sdk/lib\libpspuser.a(ThreadManForUser_0049.o)
                              c:/devkitpro/devkitpsp/bin/../lib/gcc/psp/4.1.2/../../../../psp/lib\libc.a(pipe.o) (sceKernelCreateMsgPipe)
c:/devkitPro/devkitPSP/psp/sdk/lib\libpspuser.a(ThreadManForUser_0050.o)
                              c:/devkitpro/devkitpsp/bin/../lib/gcc/psp/4.1.2/../../../../psp/lib\libc.a(pipe.o) (sceKernelDeleteMsgPipe)
c:/devkitPro/devkitPSP/psp/sdk/lib\libpspuser.a(ThreadManForUser_0051.o)
                              c:/devkitpro/devkitpsp/bin/../lib/gcc/psp/4.1.2/../../../../psp/lib\libc.a(pipe.o) (sceKernelSendMsgPipe)
c:/devkitPro/devkitPSP/psp/sdk/lib\libpspuser.a(ThreadManForUser_0053.o)
                              c:/devkitpro/devkitpsp/bin/../lib/gcc/psp/4.1.2/../../../../psp/lib\libc.a(pipe.o) (sceKernelTrySendMsgPipe)
c:/devkitPro/devkitPSP/psp/sdk/lib\libpspuser.a(ThreadManForUser_0054.o)
                              c:/devkitpro/devkitpsp/bin/../lib/gcc/psp/4.1.2/../../../../psp/lib\libc.a(pipe.o) (sceKernelReceiveMsgPipe)
c:/devkitPro/devkitPSP/psp/sdk/lib\libpspuser.a(ThreadManForUser_0056.o)
                              c:/devkitpro/devkitpsp/bin/../lib/gcc/psp/4.1.2/../../../../psp/lib\libc.a(pipe.o) (sceKernelTryReceiveMsgPipe)
c:/devkitPro/devkitPSP/psp/sdk/lib\libpspuser.a(ThreadManForUser_0058.o)
                              c:/devkitpro/devkitpsp/bin/../lib/gcc/psp/4.1.2/../../../../psp/lib\libc.a(pipe.o) (sceKernelReferMsgPipeStatus)
c:/devkitPro/devkitPSP/psp/sdk/lib\libpspuser.a(ThreadManForUser_0101.o)
                              c:/devkitpro/devkitpsp/bin/../lib/gcc/psp/4.1.2/../../../../psp/lib/crt0.o (sceKernelCreateThread)
c:/devkitPro/devkitPSP/psp/sdk/lib\libpspuser.a(ThreadManForUser_0102.o)
                              psp/sound.o (sceKernelDeleteThread)
c:/devkitPro/devkitPSP/psp/sdk/lib\libpspuser.a(ThreadManForUser_0103.o)
                              c:/devkitpro/devkitpsp/bin/../lib/gcc/psp/4.1.2/../../../../psp/lib/crt0.o (sceKernelStartThread)
c:/devkitPro/devkitPSP/psp/sdk/lib\libpspuser.a(ThreadManForUser_0105.o)
                              c:/devkitpro/devkitpsp/bin/../lib/gcc/psp/4.1.2/../../../../psp/lib\libc.a(_Exit.o) (sceKernelExitThread)
c:/devkitPro/devkitPSP/psp/sdk/lib\libpspuser.a(ThreadManForUser_0106.o)
                              psp/PspSound.o (sceKernelExitDeleteThread)
c:/devkitPro/devkitPSP/psp/sdk/lib\libpspuser.a(UtilsForUser_0014.o)
                              gbcore/cpu.o (sceKernelLibcClock)
c:/devkitPro/devkitPSP/psp/sdk/lib\libpspuser.a(UtilsForUser_0015.o)
                              psp/menuplus.o (sceKernelLibcTime)
c:/devkitPro/devkitPSP/psp/sdk/lib\libpspuser.a(UtilsForUser_0016.o)
                              psp/sound.o (sceKernelLibcGettimeofday)
c:/devkitPro/devkitPSP/psp/sdk/lib\libpspuser.a(UtilsForUser_0018.o)
                              c:/devkitPro/devkitPSP/psp/sdk/lib\libosl.a(oslib.o) (sceKernelDcacheWritebackInvalidateAll)
c:/devkitPro/devkitPSP/psp/sdk/lib\libpspuser.a(UtilsForUser_0020.o)
                              gbcore/lcd.o (sceKernelDcacheWritebackInvalidateRange)
c:/devkitPro/devkitPSP/psp/sdk/lib\libpspuser.a(InterruptManager_0001.o)
                              c:/devkitPro/devkitPSP/psp/sdk/lib\libosl.a(oslib.o) (sceKernelRegisterSubIntrHandler)
c:/devkitPro/devkitPSP/psp/sdk/lib\libpspuser.a(InterruptManager_0003.o)
                              c:/devkitPro/devkitPSP/psp/sdk/lib\libosl.a(oslib.o) (sceKernelEnableSubIntr)
c:/devkitPro/devkitPSP/psp/sdk/lib\libpspuser.a(LoadExecForUser_0003.o)
                              psp/main.o (sceKernelExitGame)
c:/devkitPro/devkitPSP/psp/sdk/lib\libpspuser.a(LoadExecForUser_0004.o)
                              c:/devkitPro/devkitPSP/psp/sdk/lib\libosl.a(oslib.o) (sceKernelRegisterExitCallback)
c:/devkitPro/devkitPSP/psp/sdk/lib\libpspuser.a(IoFileMgrForUser_0000.o)
                              c:/devkitPro/devkitPSP/psp/sdk/lib\libpspuser.a(IoFileMgrForUser_0007.o) (__stub_module_IoFileMgrForUser)
c:/devkitPro/devkitPSP/psp/sdk/lib\libpspuser.a(ModuleMgrForUser_0000.o)
                              c:/devkitPro/devkitPSP/psp/sdk/lib\libpspuser.a(ModuleMgrForUser_0002.o) (__stub_module_ModuleMgrForUser)
c:/devkitPro/devkitPSP/psp/sdk/lib\libpspuser.a(StdioForUser_0000.o)
                              c:/devkitPro/devkitPSP/psp/sdk/lib\libpspuser.a(StdioForUser_0007.o) (__stub_module_StdioForUser)
c:/devkitPro/devkitPSP/psp/sdk/lib\libpspuser.a(SysMemUserForUser_0000.o)
                              c:/devkitPro/devkitPSP/psp/sdk/lib\libpspuser.a(SysMemUserForUser_0001.o) (__stub_module_SysMemUserForUser)
c:/devkitPro/devkitPSP/psp/sdk/lib\libpspuser.a(ThreadManForUser_0000.o)
                              c:/devkitPro/devkitPSP/psp/sdk/lib\libpspuser.a(ThreadManForUser_0005.o) (__stub_module_ThreadManForUser)
c:/devkitPro/devkitPSP/psp/sdk/lib\libpspuser.a(UtilsForUser_0000.o)
                              c:/devkitPro/devkitPSP/psp/sdk/lib\libpspuser.a(UtilsForUser_0014.o) (__stub_module_UtilsForUser)
c:/devkitPro/devkitPSP/psp/sdk/lib\libpspuser.a(InterruptManager_0000.o)
                              c:/devkitPro/devkitPSP/psp/sdk/lib\libpspuser.a(InterruptManager_0001.o) (__stub_module_InterruptManager)
c:/devkitPro/devkitPSP/psp/sdk/lib\libpspuser.a(LoadExecForUser_0000.o)
                              c:/devkitPro/devkitPSP/psp/sdk/lib\libpspuser.a(LoadExecForUser_0003.o) (__stub_module_LoadExecForUser)
c:/devkitpro/devkitpsp/bin/../lib/gcc/psp/4.1.2\libgcc.a(_fixunsdfsi.o)
                              sound/emu2413.o (__fixunsdfsi)
c:/devkitpro/devkitpsp/bin/../lib/gcc/psp/4.1.2\libgcc.a(_udivdi3.o)
                              c:/devkitpro/devkitpsp/bin/../lib/gcc/psp/4.1.2/../../../../psp/lib\libc.a(vfiprintf.o) (__udivdi3)
c:/devkitpro/devkitpsp/bin/../lib/gcc/psp/4.1.2\libgcc.a(_umoddi3.o)
                              c:/devkitpro/devkitpsp/bin/../lib/gcc/psp/4.1.2/../../../../psp/lib\libc.a(vfiprintf.o) (__umoddi3)
c:/devkitpro/devkitpsp/bin/../lib/gcc/psp/4.1.2\libgcc.a(_sf_to_df.o)
                              psp/SMS.o (__extendsfdf2)
c:/devkitpro/devkitpsp/bin/../lib/gcc/psp/4.1.2\libgcc.a(_addsub_df.o)
                              psp/vgm/emu2413.o (__subdf3)
c:/devkitpro/devkitpsp/bin/../lib/gcc/psp/4.1.2\libgcc.a(_mul_df.o)
                              sound/emu2413.o (__muldf3)
c:/devkitpro/devkitpsp/bin/../lib/gcc/psp/4.1.2\libgcc.a(_div_df.o)
                              sound/sound.o (__divdf3)
c:/devkitpro/devkitpsp/bin/../lib/gcc/psp/4.1.2\libgcc.a(_eq_df.o)
                              sound/emu2413.o (__eqdf2)
c:/devkitpro/devkitpsp/bin/../lib/gcc/psp/4.1.2\libgcc.a(_ne_df.o)
                              c:/devkitpro/devkitpsp/bin/../lib/gcc/psp/4.1.2/../../../../psp/lib\libm.a(w_pow.o) (__nedf2)
c:/devkitpro/devkitpsp/bin/../lib/gcc/psp/4.1.2\libgcc.a(_gt_df.o)
                              sound/ym2413.o (__gtdf2)
c:/devkitpro/devkitpsp/bin/../lib/gcc/psp/4.1.2\libgcc.a(_ge_df.o)
                              sound/ym2413.o (__gedf2)
c:/devkitpro/devkitpsp/bin/../lib/gcc/psp/4.1.2\libgcc.a(_lt_df.o)
                              c:/devkitPro/devkitPSP/psp/sdk/lib\libpng.a(pngrtran.o) (__ltdf2)
c:/devkitpro/devkitpsp/bin/../lib/gcc/psp/4.1.2\libgcc.a(_le_df.o)
                              psp/vgm/emu2413.o (__ledf2)
c:/devkitpro/devkitpsp/bin/../lib/gcc/psp/4.1.2\libgcc.a(_si_to_df.o)
                              sound/sound.o (__floatsidf)
c:/devkitpro/devkitpsp/bin/../lib/gcc/psp/4.1.2\libgcc.a(_df_to_si.o)
                              sound/sound.o (__fixdfsi)
c:/devkitpro/devkitpsp/bin/../lib/gcc/psp/4.1.2\libgcc.a(_make_df.o)
                              c:/devkitpro/devkitpsp/bin/../lib/gcc/psp/4.1.2\libgcc.a(_sf_to_df.o) (__make_dp)
c:/devkitpro/devkitpsp/bin/../lib/gcc/psp/4.1.2\libgcc.a(_df_to_sf.o)
                              psp/gym/gym.o (__truncdfsf2)
c:/devkitpro/devkitpsp/bin/../lib/gcc/psp/4.1.2\libgcc.a(_thenan_df.o)
                              c:/devkitpro/devkitpsp/bin/../lib/gcc/psp/4.1.2\libgcc.a(_addsub_df.o) (__thenan_df)
c:/devkitpro/devkitpsp/bin/../lib/gcc/psp/4.1.2\libgcc.a(unwind-dw2.o)
                              c:/devkitpro/devkitpsp/bin/../lib/gcc/psp/4.1.2/../../../../psp/lib\libstdc++.a(eh_personality.o) (_Unwind_GetIP)
c:/devkitpro/devkitpsp/bin/../lib/gcc/psp/4.1.2\libgcc.a(unwind-dw2-fde.o)
                              c:/devkitpro/devkitpsp/bin/../lib/gcc/psp/4.1.2\libgcc.a(unwind-dw2.o) (_Unwind_Find_FDE)
c:/devkitpro/devkitpsp/bin/../lib/gcc/psp/4.1.2\libgcc.a(_clz.o)
                              c:/devkitpro/devkitpsp/bin/../lib/gcc/psp/4.1.2\libgcc.a(_udivdi3.o) (__clz_tab)
c:/devkitpro/devkitpsp/bin/../lib/gcc/psp/4.1.2\libgcc.a(_unpack_sf.o)
                              c:/devkitpro/devkitpsp/bin/../lib/gcc/psp/4.1.2\libgcc.a(_sf_to_df.o) (__unpack_f)
c:/devkitpro/devkitpsp/bin/../lib/gcc/psp/4.1.2\libgcc.a(_make_sf.o)
                              c:/devkitpro/devkitpsp/bin/../lib/gcc/psp/4.1.2\libgcc.a(_df_to_sf.o) (__make_fp)
c:/devkitpro/devkitpsp/bin/../lib/gcc/psp/4.1.2\libgcc.a(_pack_df.o)
                              c:/devkitpro/devkitpsp/bin/../lib/gcc/psp/4.1.2\libgcc.a(_addsub_df.o) (__pack_d)
c:/devkitpro/devkitpsp/bin/../lib/gcc/psp/4.1.2\libgcc.a(_unpack_df.o)
                              c:/devkitpro/devkitpsp/bin/../lib/gcc/psp/4.1.2\libgcc.a(_addsub_df.o) (__unpack_d)
c:/devkitpro/devkitpsp/bin/../lib/gcc/psp/4.1.2\libgcc.a(_fpcmp_parts_df.o)
                              c:/devkitpro/devkitpsp/bin/../lib/gcc/psp/4.1.2\libgcc.a(_eq_df.o) (__fpcmp_parts_d)
c:/devkitpro/devkitpsp/bin/../lib/gcc/psp/4.1.2\libgcc.a(_pack_sf.o)
                              c:/devkitpro/devkitpsp/bin/../lib/gcc/psp/4.1.2\libgcc.a(_make_sf.o) (__pack_f)

Allocating common symbols
Common symbol       size              file

info                0x20              gbcore/rom.o
menuFileSelectFileName
                    0x400             psp/menuplus.o
menuSoundBoxWidth   0xc               psp/menuplus.o
_ff72               0x1               gbcore/cpu.o
snd_que_count       0x4               gbcore/apu.o
first_page          0x4               gbcore/rom.o
gb2z80              0x100             gbcore/cpu.o
DR_TAB              0x180             psp/gym/ym2612.o
dirEntry            0x160             psp/menuplus.o
dat                 0x4               gbcore/rom.o
hook_ext            0x1               gbcore/gb.o
smptab              0x4               sound/sound.o
PSG_Volume_Table    0x40              psp/gym/psg.o
cg_regs             0xd               gbcore/gb.o
oam                 0xa0              gbcore/cpu.o
sram_space          0x20004           gbcore/rom.o
cheats              0x8300            gbcore/cheat.o
fadeReason          0x4               psp/menuplus.o
mbc7_idle           0x1               gbcore/mbc.o
now_win_line        0x4               gbcore/lcd.o
gu_draw_buffer      0x20              c:/devkitPro/devkitPSP/psp/sdk/lib\libpspgu.a(guInternal.o)
inval_col_pal       0x40              gbcore/lcd.o
b_dma_first         0x1               gbcore/cpu.o
linebuf             0x4               render.o
DT_TAB              0x400             psp/gym/ym2612.o
PSG_Improv          0x4               psp/gym/psg.o
audioOut            0x4000            psp/PspSound.o
mbc7_state          0x1               gbcore/mbc.o
mbc3_dayl           0x1               gbcore/mbc.o
SIN_TAB             0x4000            psp/gym/ym2612.o
LFO_FREQ_TAB        0x1000            psp/gym/ym2612.o
dma_dest_bank       0x4               gbcore/cpu.o
osl_virtualFileList
                    0x4               c:/devkitPro/devkitPSP/psp/sdk/lib\libosl.a(VirtualFile.o)
spare_oam           0x18              gbcore/cpu.o
cart                0x8018            system.o
z802gb              0x100             gbcore/cpu.o
LFO_ENV_UP          0x1f40            psp/gym/ym2612.o
osl_audioActive     0x20              c:/devkitPro/devkitPSP/psp/sdk/lib\libosl.a(audio.o)
gblFichierConfig    0x4               psp/config.o
c_regs_I            0x1               gbcore/cpu.o
cur_time            0x4               psp/gameboy_render.o
total_clock         0x4               gbcore/cpu.o
en3                 0x4               psp/gym/ym2612.o
sgb_palette_real    0x100             gbcore/sgb.o
Screen              0x8               psp/VideoGu.o
sram_page           0x4               gbcore/mbc.o
_ff73               0x1               gbcore/cpu.o
LFO_INC_TAB         0x20              psp/gym/ym2612.o
osl_currentFrameRate
                    0x4               c:/devkitPro/devkitPSP/psp/sdk/lib\libosl.a(oslib.o)
menuStatusBarMessageInd
                    0x100             psp/menuplus.o
menuPressedKeysAutorepeatDelay
                    0x4               psp/menuplus.o
errno               0x4               c:/devkitpro/devkitpsp/bin/../lib/gcc/psp/4.1.2/../../../../psp/lib\libc.a(reent.o)
sys_clock           0x4               gbcore/cpu.o
org_gbtype          0x4               gbcore/rom.o
now_gb_mode         0x4               gbcore/gb.o
ext_is_ram          0x1               gbcore/mbc.o
msgAboutArrowAlpha  0x8               psp/menuplus.o
bitmap              0xc0              system.o
pixel_values        0x100             psp/SMS.o
tilePalPalette      0x180             gbcore/lcd.o
mbc7_dat            0x2               gbcore/mbc.o
osl_filesave        0x20              c:/devkitPro/devkitPSP/psp/sdk/lib\libosl.a(audio.o)
gbSkip              0x4               gbcore/gb.o
gblChoice           0x14              psp/menuplus.o
sms                 0x2018            sms.o
menuDefaultExecute  0x200             psp/config.o
menuPlusTerminated  0x4               psp/menuplus.o
mbc3_latch          0x1               gbcore/mbc.o
osl_currentAlphaCoeff
                    0x4               c:/devkitPro/devkitPSP/psp/sdk/lib\libosl.a(drawing.o)
mbc1_16_8           0x1               gbcore/mbc.o
menuTimeZone        0x4               psp/menuplus.o
menuFileSelectSubMenu
                    0x4               psp/menuplus2.o
chneLabel           0x3e8             psp/config.o
in1                 0x4               psp/gym/ym2612.o
bg_pattern_cache    0x20000           render.o
c_regs_SP           0x2               gbcore/cpu.o
input               0x10              system.o
PSG_Noise_Step_Table
                    0x10              psp/gym/psg.o
tilePalCrc          0x30              gbcore/lcd.o
YM_Buf              0x8               psp/gym/ym2612.o
bp_lut              0x40000           render.o
ztbls               0x4c              gbcore/lcd.o
sgb_palette_memory  0x1000            gbcore/sgb.o
osl_vramBlocks      0x4               c:/devkitPro/devkitPSP/psp/sdk/lib\libosl.a(vram_mgr.o)
tilePalPalette_invalid
                    0x30              gbcore/lcd.o
osl_audioStandBy    0x4               c:/devkitPro/devkitPSP/psp/sdk/lib\libosl.a(audio.o)
menuIsInGame        0x4               psp/menuplus.o
osl_currentTexWrapV
                    0x4               c:/devkitPro/devkitPSP/psp/sdk/lib\libosl.a(drawing.o)
fm_context          0x41              sound/fmintf.o
osl_tempFile        0x10              c:/devkitPro/devkitPSP/psp/sdk/lib\libosl.a(VirtualFile.o)
ge_edram_address    0x4               c:/devkitPro/devkitPSP/psp/sdk/lib\libpspgu.a(guInternal.o)
layer_enable        0x3               gbcore/lcd.o
mbc3_sec            0x1               gbcore/mbc.o
dma_src_bank        0x4               gbcore/cpu.o
sram_crc            0x4               psp/SMS.o
__psp_descriptormap
                    0x1000            c:/devkitpro/devkitpsp/bin/../lib/gcc/psp/4.1.2/../../../../psp/lib\libc.a(fdman.o)
stack               0x80              gbcore/cpu.o
gu_object_stack     0x80              c:/devkitPro/devkitPSP/psp/sdk/lib\libpspgu.a(guInternal.o)
tmp_clocks          0x4               gbcore/cpu.o
windowBoxPalette    0xc0              psp/menuplus.o
re_render           0x4               gbcore/gb.o
cheat_map           0x10000           gbcore/cheat.o
dummy_read          0x400             sms.o
PSG_Step_Table      0x1000            psp/gym/psg.o
cheat_map_n         0x40000           gbcore/cheat.o
en1                 0x4               psp/gym/ym2612.o
mbc7_adr            0x1               gbcore/mbc.o
mbc7_buf            0x2               gbcore/mbc.o
cpu_readmap         0x100             cpu/z80.o
VirtualFileSources  0x40              c:/devkitPro/devkitPSP/psp/sdk/lib\libosl.a(VirtualFile.o)
sgb_palette_inval   0x100             gbcore/sgb.o
menuUpdateRender    0x4               psp/menuplus.o
menuTempMessageText
                    0x100             psp/menuplus.o
mbc7_count          0x1               gbcore/mbc.o
gblVarName          0x200             psp/config.o
mbc3_min            0x1               gbcore/mbc.o
vdp                 0x4084            vdp.o
retourScript        0x4               psp/config.o
sgb_buffer          0x70              gbcore/sgb.o
gu_display_on       0x4               c:/devkitPro/devkitPSP/psp/sdk/lib\libpspgu.a(guInternal.o)
menuStatusMessage   0xc8              psp/menuplus.o
AR_TAB              0x200             psp/gym/ym2612.o
dummy_write         0x400             sms.o
menuConfig          0x91c             psp/menuplus.o
sgb_mode            0x4               gbcore/rom.o
ENV_TAB             0x8020            psp/gym/ym2612.o
mbc3_timer          0x1               gbcore/mbc.o
sensor_y            0x4               psp/gameboy_render.o
menuColorCursor     0x10              psp/menuplus.o
FINC_TAB            0x2000            psp/gym/ym2612.o
snd_stat_cpy        0xec              gbcore/apu.o
sgb_border          0x800             gbcore/sgb.o
sgb_palette         0x100             gbcore/sgb.o
snd_stat_tmp        0xec              gbcore/apu.o
gu_contexts         0x114             c:/devkitPro/devkitPSP/psp/sdk/lib\libpspgu.a(guInternal.o)
_ff75               0x1               gbcore/cpu.o
mbc3_hour           0x1               gbcore/mbc.o
winMsgBox           0x34              psp/menuplus.o
huc1_16_8           0x1               gbcore/mbc.o
menuTempStateMemory
                    0x4               psp/menuplus.o
snd                 0x3c              sound/sound.o
last_int            0x4               gbcore/cpu.o
DECAY_TO_ATTACK     0x4000            psp/gym/ym2612.o
menuPressedKeysAutorepeatMask
                    0x4               psp/menuplus.o
osl_audioVoices     0x120             c:/devkitPro/devkitPSP/psp/sdk/lib\libosl.a(audio.o)
menuFileSelectSwap  0x4               psp/menuplus2.o
rp_data             0x1               gbcore/cpu.o
osl_curBuf          0x4               c:/devkitPro/devkitPSP/psp/sdk/lib\libosl.a(drawing.o)
mbc1_dat            0x1               gbcore/mbc.o
en0                 0x4               psp/gym/ym2612.o
ext_mem             0x10              gbcore/cpu.o
mbc3_dayh           0x1               gbcore/mbc.o
gbc_cram_expand_table
                    0x20              gbcore/lcd.o
pad_state           0x4               psp/gameboy_render.o
osl_virtualFileListSize
                    0x4               c:/devkitPro/devkitPSP/psp/sdk/lib\libosl.a(VirtualFile.o)
b_trace             0x1               gbcore/cpu.o
LFO_ENV_TAB         0x1000            psp/gym/ym2612.o
pixel               0x40              render.o
cpu_writemap        0x100             cpu/z80.o
menuFileSelectPath  0x400             psp/menuplus.o
fadeDirection       0x4               psp/menuplus.o
YM2612_Improv       0x4               psp/gym/ym2612.o
PSG_Chan_Enable     0x10              psp/gym/psg.o
snd_stat            0xec              gbcore/apu.o
osl_currentAlphaEffect
                    0x4               c:/devkitPro/devkitPSP/psp/sdk/lib\libosl.a(drawing.o)
sgb_borderchar      0x2000            gbcore/sgb.o
in3                 0x4               psp/gym/ym2612.o
in2                 0x4               psp/gym/ym2612.o
osl_defaultBufferImage
                    0x50              c:/devkitPro/devkitPSP/psp/sdk/lib\libosl.a(drawing.o)
Chan_Enable         0x18              psp/gym/ym2612.o
game_name           0x400             loadrom.o
use_gba             0x1               gbcore/gb.o
ram_bank            0x4               gbcore/cpu.o
sram                0x4               gbcore/rom.o
mbc5_dat            0x4               gbcore/mbc.o
div_clock           0x4               gbcore/cpu.o
PSG_Buf             0x8               psp/gym/psg.o
stExtentions        0x4               psp/menuplus2.o
mbc7_sk             0x1               gbcore/mbc.o
currentPalCache     0x30              gbcore/lcd.o
tempValue           0x200             psp/config.o
t_error             0xc               error.o
bg_list_index       0x2               render.o
vram_bank           0x4               gbcore/cpu.o
dma_executing       0x1               gbcore/cpu.o
menuPressedKeys     0x28              psp/menuplus.o
sgb_screenbuffer    0x1040            gbcore/sgb.o
LFO_FREQ_UP         0x1f40            psp/gym/ym2612.o
_ff6c               0x1               gbcore/cpu.o
mul                 0x4               gbcore/lcd.o
internal_buffer     0x100             render.o
c_regs_HL           0x2               gbcore/cpu.o
smptab_len          0x4               sound/sound.o
vframe_mem          0x20000           gbcore/gb.o
gblHint             0xc               psp/menuplus.o
osl_keys            0x4               c:/devkitPro/devkitPSP/psp/sdk/lib\libosl.a(oslib.o)
mbc7_cs             0x1               gbcore/mbc.o
col_pal             0x80              gbcore/lcd.o
int_cnt             0x4               psp/gym/ym2612.o
snd_b_lowpass       0x1               gbcore/apu.o
sgb_ATF_list        0x3f48            gbcore/sgb.o
gblMenuAlpha        0x4               psp/menuplus.o
speed_change        0x1               gbcore/cpu.o
osl_ditheringEnabled
                    0x4               c:/devkitPro/devkitPSP/psp/sdk/lib\libosl.a(drawing.o)
menuRamStateFileName
                    0x400             psp/menuplus.o
TL_TAB              0x18000           psp/gym/ym2612.o
io_current          0x4               pio.o
menuColorSubmenuTitle
                    0x4               psp/menuplus.o
audioOutTemp        0x8000            psp/PspSound.o
INTER_TAB           0x1f40            psp/gym/ym2612.o
tilePalList         0x180             gbcore/lcd.o
gu_states           0x4               c:/devkitPro/devkitPSP/psp/sdk/lib\libpspgu.a(guInternal.o)
mbc7_op_code        0x1               gbcore/mbc.o
snd_b_enable        0x4               gbcore/apu.o
menuStatusActive    0x4               psp/menuplus.o
ScreenTemp          0x8               psp/VideoGu.o
gblFlagLoadParams   0x4               psp/menuplus.o
_ff74               0x1               gbcore/cpu.o
gu_object_stack_depth
                    0x4               c:/devkitPro/devkitPSP/psp/sdk/lib\libpspgu.a(guInternal.o)
menuMusicLocked     0x4               psp/menuplus.o
osl_secondaryBufferImage
                    0x50              c:/devkitPro/devkitPSP/psp/sdk/lib\libosl.a(drawing.o)
frame_underclock    0x4               system.o
msgBoxArrowOffset   0x4               psp/menuplus.o
render_obj          0x4               render.o
sgb_border_buffer   0x1c000           gbcore/sgb.o
int_invoke_next     0x1               gbcore/cpu.o
mbc7_write_enable   0x1               gbcore/mbc.o
snd_mem             0x100             gbcore/apu.o
osl_gifLineBuf      0x800             c:/devkitPro/devkitPSP/psp/sdk/lib\libosl.a(oslLoadImageFileGIF.o)
sprite_count        0x4               gbcore/lcd.o
tileMapTileList     0x300             gbcore/lcd.o
rp_time             0x4               gbcore/cpu.o
osl_currentTexWrapU
                    0x4               c:/devkitPro/devkitPSP/psp/sdk/lib\libosl.a(drawing.o)
PSG_SIN_Table       0x8000            psp/gym/psg.o
dma_rest            0x4               gbcore/cpu.o
gu_list             0x4               c:/devkitPro/devkitPSP/psp/sdk/lib\libpspgu.a(guInternal.o)
menuAnimateCursor   0x4               psp/menuplus.o
z80_ICount          0x4               cpu/z80.o
c_regs_PC           0x2               gbcore/cpu.o
ge_list_executed    0x8               c:/devkitPro/devkitPSP/psp/sdk/lib\libpspgu.a(guInternal.o)
osl_colorKeyEnabled
                    0x4               c:/devkitPro/devkitPSP/psp/sdk/lib\libosl.a(drawing.o)
snd_write_que       0x80000           gbcore/apu.o
gdma_rest           0x4               gbcore/cpu.o
PSG                 0x60              psp/gym/psg.o
PSG_Enable          0x4               psp/gym/psg.o
menuFrameNb         0x4               psp/menuplus.o
osl_isinus          0x5a4             c:/devkitPro/devkitPSP/psp/sdk/lib\libosl.a(oslib.o)
bg_name_dirty       0x200             render.o
YM2612              0x14d0            psp/gym/ym2612.o
speed               0x1               gbcore/cpu.o
vfpu_vars           0x10              c:/devkitPro/devkitPSP/psp/sdk/lib\libosl.a(vfpu.o)
lut                 0x10000           render.o
in0                 0x4               psp/gym/ym2612.o
b_loaded            0x1               gbcore/rom.o
osl_gifTempPalette  0x4               c:/devkitPro/devkitPSP/psp/sdk/lib\libosl.a(oslLoadImageFileGIF.o)
int_disable_next    0x1               gbcore/cpu.o
PSG_Save            0x20              psp/gym/psg.o
snd_bef_clock       0x4               gbcore/apu.o
sensor_x            0x4               psp/gameboy_render.o
DAC_Enable          0x4               psp/gym/ym2612.o
_c_regs             0xe               gbcore/cpu.o
seri_occer          0x4               gbcore/cpu.o
ram                 0x8000            gbcore/cpu.o
tilePalPalette_real
                    0x180             gbcore/lcd.o
menuPressedKeysAutorepeatInit
                    0x4               psp/menuplus.o
g_regs              0x15              gbcore/gb.o
halt                0x1               gbcore/cpu.o
osl_bilinearFilterEnabled
                    0x4               c:/devkitPro/devkitPSP/psp/sdk/lib\libosl.a(drawing.o)
dmy                 0x640             gbcore/gb.o
gblIndice           0x4               psp/config.o
sgb_ATF             0x168             gbcore/sgb.o
osl_currentVramPtr  0x4               c:/devkitPro/devkitPSP/psp/sdk/lib\libosl.a(vram_mgr.o)
NULL_RATE           0x80              psp/gym/ym2612.o
real_col_pal        0x80              gbcore/lcd.o
mbc7_ret            0x1               gbcore/mbc.o
gu_current_frame    0x4               c:/devkitPro/devkitPSP/psp/sdk/lib\libpspgu.a(guInternal.o)
rom_page            0x4               gbcore/mbc.o
huc1_dat            0x1               gbcore/mbc.o
osl_colorKeyValue   0x4               c:/devkitPro/devkitPSP/psp/sdk/lib\libosl.a(drawing.o)
c_regs_AF           0x2               gbcore/cpu.o
vram                0x4000            gbcore/cpu.o
bg_name_list        0x400             render.o
fadeLevel           0x4               psp/menuplus.o
c_regs_BC           0x2               gbcore/cpu.o
en2                 0x4               psp/gym/ym2612.o
n_mpal16            0x4               gbcore/lcd.o
gblColorItPaletteFileName
                    0x400             psp/menuplus.o
dma_dest            0x4               gbcore/cpu.o
hook_proc           0x8               gbcore/gb.o
gu_curr_context     0x4               c:/devkitPro/devkitPSP/psp/sdk/lib\libpspgu.a(guInternal.o)
SL_TAB              0x40              psp/gym/ym2612.o
gu_call_mode        0x4               c:/devkitPro/devkitPSP/psp/sdk/lib\libpspgu.a(guInternal.o)
gu_settings         0x3c              c:/devkitPro/devkitPSP/psp/sdk/lib\libpspgu.a(guInternal.o)
io_lut              0x1000            pio.o
osl_pad             0x20              c:/devkitPro/devkitPSP/psp/sdk/lib\libosl.a(keys.o)
nCheats             0x4               gbcore/cheat.o
gu_init             0x4               c:/devkitPro/devkitPSP/psp/sdk/lib\libpspgu.a(guInternal.o)
c_regs_DE           0x2               gbcore/cpu.o
menuDayLightSaving  0x4               psp/menuplus.o
rest_clock          0x4               gbcore/cpu.o
alphaSave           0x8               psp/menuplus.o
osl_currentAlphaCoeff2
                    0x4               c:/devkitPro/devkitPSP/psp/sdk/lib\libosl.a(drawing.o)
render_bg           0x4               render.o
dma_src             0x4               gbcore/cpu.o
osl_icosinus        0x5a4             c:/devkitPro/devkitPSP/psp/sdk/lib\libosl.a(oslib.o)
menuRamStateMemory  0x4               psp/menuplus.o

Memory Configuration

Name             Origin             Length             Attributes
*default*        0x0000000000000000 0xffffffffffffffff

Linker script and memory map

LOAD c:/devkitpro/devkitpsp/bin/../lib/gcc/psp/4.1.2/../../../../psp/lib/crt0.o
LOAD c:/devkitpro/devkitpsp/bin/../lib/gcc/psp/4.1.2/crti.o
LOAD c:/devkitpro/devkitpsp/bin/../lib/gcc/psp/4.1.2/crtbegin.o
LOAD gbcore/apu.o
LOAD gbcore/cheat.o
LOAD gbcore/cpu.o
LOAD gbcore/gb.o
LOAD gbcore/lcd.o
LOAD gbcore/mbc.o
LOAD gbcore/rom.o
LOAD gbcore/sgb.o
LOAD cpu/z80.o
LOAD memz80.o
LOAD pio.o
LOAD vdp.o
LOAD render.o
LOAD sms.o
LOAD system.o
LOAD sound/sound.o
LOAD sound/sn76489.o
LOAD sound/emu2413.o
LOAD sound/ym2413.o
LOAD sound/fmintf.o
LOAD sound/stream.o
LOAD psp/gameboy_render.o
LOAD psp/VideoGu.o
LOAD psp/Controls.o
LOAD psp/PspSound.o
LOAD psp/SMS.o
LOAD psp/main.o
LOAD psp/menuplus.o
LOAD psp/menuplus2.o
LOAD psp/config.o
LOAD psp/usb.o
LOAD psp/sound.o
LOAD fileio.o
LOAD state.o
LOAD loadrom.o
LOAD unzip/ioapi.o
LOAD unzip/unzip.o
LOAD psp/gym/gym.o
LOAD psp/gym/gym_play.o
LOAD psp/gym/psg.o
LOAD psp/gym/ym2612.o
LOAD psp/gym/bzlib/blocksort.o
LOAD psp/gym/bzlib/bzlib.o
LOAD psp/gym/bzlib/compress.o
LOAD psp/gym/bzlib/crctable.o
LOAD psp/gym/bzlib/decompress.o
LOAD psp/gym/bzlib/huffman.o
LOAD psp/gym/bzlib/randtable.o
LOAD psp/vgm/mame_fm.o
LOAD psp/vgm/emu2413.o
LOAD psp/vgm/sn76489.o
LOAD psp/vgm/mame_ym2151.o
LOAD psp/vgm/In_vgm.o
LOAD psp/gz.o
LOAD psp/VirtualGz.o
LOAD psp/deflate.o
LOAD psp/gzio.o
LOAD error.o
LOAD c:/devkitPro/devkitPSP/psp/sdk/lib\libosl.a
LOAD c:/devkitPro/devkitPSP/psp/sdk/lib\libpng.a
LOAD c:/devkitPro/devkitPSP/psp/sdk/lib\libz.a
LOAD c:/devkitPro/devkitPSP/psp/sdk/lib\libpspsdk.a
LOAD c:/devkitPro/devkitPSP/psp/sdk/lib\libpsphprm.a
LOAD c:/devkitPro/devkitPSP/psp/sdk/lib\libpspctrl.a
LOAD c:/devkitPro/devkitPSP/psp/sdk/lib\libpspumd.a
LOAD c:/devkitPro/devkitPSP/psp/sdk/lib\libpsprtc.a
LOAD c:/devkitPro/devkitPSP/psp/sdk/lib\libpsppower.a
LOAD c:/devkitPro/devkitPSP/psp/sdk/lib\libpspusb.a
LOAD c:/devkitPro/devkitPSP/psp/sdk/lib\libpspusbstor.a
LOAD c:/devkitPro/devkitPSP/psp/sdk/lib\libpspgu.a
LOAD c:/devkitPro/devkitPSP/psp/sdk/lib\libpspaudiolib.a
LOAD c:/devkitPro/devkitPSP/psp/sdk/lib\libpspaudio.a
LOAD c:/devkitpro/devkitpsp/bin/../lib/gcc/psp/4.1.2/../../../../psp/lib\libstdc++.a
LOAD c:/devkitpro/devkitpsp/bin/../lib/gcc/psp/4.1.2/../../../../psp/lib\libm.a
LOAD c:/devkitPro/devkitPSP/psp/sdk/lib\libpspdebug.a
LOAD c:/devkitPro/devkitPSP/psp/sdk/lib\libpspdisplay.a
LOAD c:/devkitPro/devkitPSP/psp/sdk/lib\libpspge.a
LOAD c:/devkitPro/devkitPSP/psp/sdk/lib\libpspctrl.a
LOAD c:/devkitPro/devkitPSP/psp/sdk/lib\libpspsdk.a
LOAD c:/devkitpro/devkitpsp/bin/../lib/gcc/psp/4.1.2/../../../../psp/lib\libc.a
LOAD c:/devkitPro/devkitPSP/psp/sdk/lib\libpspnet.a
LOAD c:/devkitPro/devkitPSP/psp/sdk/lib\libpspnet_inet.a
LOAD c:/devkitPro/devkitPSP/psp/sdk/lib\libpspnet_apctl.a
LOAD c:/devkitPro/devkitPSP/psp/sdk/lib\libpspnet_resolver.a
LOAD c:/devkitPro/devkitPSP/psp/sdk/lib\libpsputility.a
LOAD c:/devkitPro/devkitPSP/psp/sdk/lib\libpspuser.a
LOAD c:/devkitPro/devkitPSP/psp/sdk/lib\libpspkernel.a
LOAD c:/devkitpro/devkitpsp/bin/../lib/gcc/psp/4.1.2\libgcc.a
LOAD c:/devkitpro/devkitpsp/bin/../lib/gcc/psp/4.1.2\libgcc.a
LOAD c:/devkitpro/devkitpsp/bin/../lib/gcc/psp/4.1.2/crtend.o
LOAD c:/devkitpro/devkitpsp/bin/../lib/gcc/psp/4.1.2/crtn.o
                0x0000000008900000                PROVIDE (__executable_start, 0x8900000)
                0x0000000008900000                . = 0x8900000

.interp
 *(.interp)

.reginfo        0x0000000008900000       0x18
 *(.reginfo)
 .reginfo       0x0000000008900000       0x18 c:/devkitpro/devkitpsp/bin/../lib/gcc/psp/4.1.2/../../../../psp/lib/crt0.o

.dynamic
 *(.dynamic)

.hash
 *(.hash)

.dynsym
 *(.dynsym)

.dynstr
 *(.dynstr)

.gnu.version
 *(.gnu.version)

.gnu.version_d
 *(.gnu.version_d)

.gnu.version_r
 *(.gnu.version_r)

.rel.dyn

.rel.init
 *(.rel.init)

.rela.init
 *(.rela.init)

.rel.text
 *(.rel.text .rel.text.* .rel.gnu.linkonce.t.*)

.rela.text
 *(.rela.text .rela.text.* .rela.gnu.linkonce.t.*)

.rel.fini
 *(.rel.fini)

.rela.fini
 *(.rela.fini)

.rel.sceStub.text
 *(.rel.sceStub.text)
 *(SORT(.rel.sceStub.text.*))

.rel.lib.ent.top
 *(.rel.lib.ent.top)

.rel.lib.ent
 *(.rel.lib.ent)

.rel.lib.ent.btm
 *(.rel.lib.ent.btm)

.rel.lib.stub.top
 *(.rel.lib.stub.top)

.rel.lib.stub
 *(.rel.lib.stub)

.rel.lib.stub.btm
 *(.rel.lib.stub.btm)

.rel.rodata.sceModuleInfo
 *(.rel.rodata.sceModuleInfo)

.rel.rodata.sceResident
 *(.rel.rodata.sceResident)

.rel.rodata.sceNid
 *(.rel.rodata.sceNid)

.rel.rodata.sceVstub
 *(.rel.rodata.sceVstub)
 *(SORT(.rel.rodata.sceVstub.*))

.rel.rodata
 *(.rel.rodata .rel.rodata.* .rel.gnu.linkonce.r.*)

.rela.rodata
 *(.rela.rodata .rela.rodata.* .rela.gnu.linkonce.r.*)

.rel.data.rel.ro
 *(.rel.data.rel.ro*)

.rela.data.rel.ro
 *(.rel.data.rel.ro*)

.rel.data
 *(.rel.data .rel.data.* .rel.gnu.linkonce.d.*)

.rela.data
 *(.rela.data .rela.data.* .rela.gnu.linkonce.d.*)

.rel.tdata
 *(.rel.tdata .rel.tdata.* .rel.gnu.linkonce.td.*)

.rela.tdata
 *(.rela.tdata .rela.tdata.* .rela.gnu.linkonce.td.*)

.rel.tbss
 *(.rel.tbss .rel.tbss.* .rel.gnu.linkonce.tb.*)

.rela.tbss
 *(.rela.tbss .rela.tbss.* .rela.gnu.linkonce.tb.*)

.rel.ctors
 *(.rel.ctors)

.rela.ctors
 *(.rela.ctors)

.rel.dtors
 *(.rel.dtors)

.rela.dtors
 *(.rela.dtors)

.rel.got
 *(.rel.got)

.rela.got
 *(.rela.got)

.rel.sdata
 *(.rel.sdata .rel.sdata.* .rel.gnu.linkonce.s.*)

.rela.sdata
 *(.rela.sdata .rela.sdata.* .rela.gnu.linkonce.s.*)

.rel.sbss
 *(.rel.sbss .rel.sbss.* .rel.gnu.linkonce.sb.*)

.rela.sbss
 *(.rela.sbss .rela.sbss.* .rela.gnu.linkonce.sb.*)

.rel.sdata2
 *(.rel.sdata2 .rel.sdata2.* .rel.gnu.linkonce.s2.*)

.rela.sdata2
 *(.rela.sdata2 .rela.sdata2.* .rela.gnu.linkonce.s2.*)

.rel.sbss2
 *(.rel.sbss2 .rel.sbss2.* .rel.gnu.linkonce.sb2.*)

.rela.sbss2
 *(.rela.sbss2 .rela.sbss2.* .rela.gnu.linkonce.sb2.*)

.rel.bss
 *(.rel.bss .rel.bss.* .rel.gnu.linkonce.b.*)

.rela.bss
 *(.rela.bss .rela.bss.* .rela.gnu.linkonce.b.*)

.rel.plt
 *(.rel.plt)

.rela.plt
 *(.rela.plt)

.init           0x0000000008900018       0x24
 *(.init)
 .init          0x0000000008900018        0x8 c:/devkitpro/devkitpsp/bin/../lib/gcc/psp/4.1.2/crti.o
                0x0000000008900018                _init
 .init          0x0000000008900020        0x8 c:/devkitpro/devkitpsp/bin/../lib/gcc/psp/4.1.2/crtbegin.o
 .init          0x0000000008900028        0x8 c:/devkitpro/devkitpsp/bin/../lib/gcc/psp/4.1.2/crtend.o
 .init          0x0000000008900030        0xc c:/devkitpro/devkitpsp/bin/../lib/gcc/psp/4.1.2/crtn.o

.plt
 *(.plt)

.text           0x000000000890003c    0xfb5ac
                0x000000000890003c                _ftext = .
 *(.text .stub .text.* .gnu.linkonce.t.*)
 .text          0x000000000890003c      0x1ec c:/devkitpro/devkitpsp/bin/../lib/gcc/psp/4.1.2/../../../../psp/lib/crt0.o
                0x000000000890003c                _start
                0x0000000008900180                _main
 .text          0x0000000008900228      0x10c c:/devkitpro/devkitpsp/bin/../lib/gcc/psp/4.1.2/crtbegin.o
 .text          0x0000000008900334     0x2380 gbcore/apu.o
                0x000000000890042c                apu_get_stat_gen
                0x0000000008901ce0                snd_render
                0x0000000008900418                apu_update
                0x0000000008900fa4                snd_get_lowpass
                0x0000000008900b58                snd_noi_produce
                0x0000000008901098                snd_reset
                0x0000000008900cd4                snd_update
                0x0000000008900480                snd_get_enable
                0x0000000008900f98                snd_set_lowpass
                0x0000000008900420                apu_get_stat_cpu
                0x0000000008900494                snd_process
                0x00000000089012ac                snd_render_orig
                0x000000000890046c                snd_set_enable
                0x0000000008900a50                snd_wav_produce
                0x0000000008900fb0                apu_write
                0x00000000089009b0                snd_sq2_produce
                0x0000000008901284                apu_init
                0x0000000008900444                snd_init
                0x000000000890127c                apu_reset
                0x0000000008900334                apu_read
                0x0000000008900438                apu_get_mem
                0x0000000008900910                snd_sq1_produce
 .text          0x00000000089026b4      0x884 gbcore/cheat.o
                0x0000000008902a90                cheat_init
                0x00000000089026f8                cheat_write
                0x00000000089027ec                cheat_decreate_cheat_map
                0x0000000008902a84                cheat_clear
                0x0000000008902a9c                cheat_load
                0x00000000089026b4                hex2n
                0x0000000008902904                cheat_create_cheat_map
 .text          0x0000000008902f38     0xed58 gbcore/cpu.o
                0x000000000890812c                op_code_cb_case0x15
                0x0000000008907098                op_code_normal_case0xA0
                0x0000000008904ac0                op_code_cb_case0xFF
                0x0000000008904f90                op_code_cb_case0xBD
                0x0000000008909f98                op_code_normal_case0xC9
                0x0000000008909124                cpu_read
                0x0000000008906c44                op_code_normal_case0xBA
                0x00000000089093d4                op_code_normal_case0x2A
                0x000000000890bac8                op_code_cb_case0xAE
                0x0000000008904930                op_code_cb_case0xEB
                0x0000000008904f08                op_code_cb_case0xB7
                0x00000000089049b4                op_code_cb_case0xF2
                0x0000000008905354                op_code_normal_case0x7D
                0x00000000089099b8                op_code_normal_case0xF6
                0x0000000008908524                cpu_set_c_regs
                0x0000000008905104                op_code_normal_case0x51
                0x000000000890c18c                op_code_cb_case0x8E
                0x0000000008904838                op_code_cb_case0xDF
                0x00000000089077c4                op_code_normal_case0x87
                0x0000000008905218                op_code_normal_case0x62
                0x0000000008905370                op_code_normal_case0xF9
                0x00000000089050dc                op_code_normal_case0x4F
                0x0000000008911384                op_code_normal_case0x0A
                0x0000000008907ff8                op_code_cb_case0x1B
                0x0000000008909418                op_code_cb_case0x7E
                0x0000000008909a08                op_code_normal_case0x06
                0x0000000008904e58                op_code_cb_case0xAD
                0x0000000008904918                op_code_cb_case0xEA
                0x00000000089111b8                op_code_normal_case0x1A
                0x0000000008907ed8                op_code_cb_case0x21
                0x0000000008904100                op_code_cb_case0x64
                0x0000000008909d64                op_code_normal_case0xEE
                0x0000000008903948                cpu_restore_state_ex
                0x0000000008904638                op_code_cb_case0xC4
                0x00000000089068fc                op_code_normal_case0x05
                0x000000000890a000                op_code_normal_case0xD9
                0x00000000089050a0                op_code_normal_case0x4B
                0x0000000008907664                op_code_normal_case0x8B
                0x00000000089078e4                op_code_normal_case0x82
                0x0000000008908074                op_code_cb_case0x19
                0x0000000008902fe8                cpu_save_state_ex
                0x0000000008903c54                op_code_cb_case0x4A
                0x000000000890c070                op_code_normal_case0x72
                0x000000000890a3a8                op_code_normal_case0x01
                0x0000000008909330                op_code_normal_case0x46
                0x0000000008905184                op_code_normal_case0x59
                0x0000000008909594                op_code_cb_case0x56
                0x0000000008908224                op_code_cb_case0x11
                0x0000000008904b20                op_code_cb_case0x83
                0x0000000008904770                op_code_cb_case0xD4
                0x00000000089046c0                op_code_cb_case0xCB
                0x00000000089118ec                op_code_normal_case0x66
                0x000000000890bf4c                op_code_cb_case0xFE
                0x00000000089055a8                op_code_normal_case0x00
                0x0000000008905048                op_code_normal_case0x45
                0x0000000008905518                op_code_normal_case0x1B
                0x000000000890bd08                op_code_cb_case0x9E
                0x0000000008906478                cpu_init
                0x0000000008906dd8                op_code_normal_case0xB2
                0x00000000089082d4                op_code_cb_case0x0D
                0x0000000008906b54                op_code_normal_case0xBD
                0x00000000089073c8                op_code_normal_case0x94
                0x000000000890af90                op_code_normal_case0xCD
                0x0000000008904edc                op_code_cb_case0xB4
                0x0000000008904c6c                op_code_cb_case0x94
                0x00000000089048d4                op_code_cb_case0xE7
                0x000000000890abb8                op_code_normal_case0xC4
                0x0000000008909678                op_read
                0x000000000890962c                op_code_cb_case0x46
                0x00000000089084b8                op_code_cb_case0x03
                0x00000000089072f0                op_code_normal_case0x98
                0x0000000008907bb0                op_code_cb_case0x3B
                0x0000000008907c38                op_code_cb_case0x38
                0x0000000008904a0c                op_code_cb_case0xF7
                0x00000000089043d8                op_code_cb_case0x74
                0x0000000008904030                op_code_cb_case0x60
                0x00000000089098c0                op_code_normal_case0x16
                0x0000000008903d8c                op_code_cb_case0x51
                0x0000000008904694                op_code_cb_case0xC9
                0x00000000089083e0                op_code_cb_case0x08
                0x000000000890b028                op_code_normal_case0xC2
                0x0000000008907a8c                op_code_cb_case0x32
                0x0000000008904440                op_code_cb_case0x77
                0x0000000008906a64                op_code_normal_case0x14
                0x0000000008906fd8                op_code_normal_case0xA4
                0x000000000890bbe8                op_code_cb_case0xA6
                0x0000000008904c14                op_code_cb_case0x90
                0x0000000008904894                op_code_cb_case0xE3
                0x000000000890aae0                op_code_normal_case0xDC
                0x00000000089050b4                op_code_normal_case0x4C
                0x0000000008907b24                op_code_cb_case0x3F
                0x00000000089052c0                op_code_normal_case0x6C
                0x000000000890fcdc                op_code_normal_case0xB6
                0x0000000008903d58                op_code_cb_case0x50
                0x00000000089051b4                op_code_normal_case0x5C
                0x00000000089082a0                op_code_cb_case0x0F
                0x00000000089095e0                op_code_cb_case0x4E
                0x0000000008908340                op_code_cb_case0x0B
                0x0000000008904f64                op_code_cb_case0xBB
                0x000000000890797c                op_code_normal_case0x80
                0x0000000008904ec8                op_code_cb_case0xB3
                0x0000000008906950                op_code_normal_case0x3C
                0x0000000008909b60                op_code_normal_case0xE8
                0x0000000008906e7c                op_code_normal_case0xAD
                0x0000000008904b78                op_code_cb_case0x88
                0x00000000089047cc                op_code_cb_case0xD9
                0x0000000008904700                op_code_cb_case0xCF
                0x0000000008911550                op_code_normal_case0x7E
                0x0000000008905204                op_code_normal_case0x61
                0x0000000008904ff0                op_code_normal_case0x40
                0x0000000008905424                op_code_normal_case0x29
                0x000000000890862c                op_code_normal_case0xF3
                0x0000000008907da8                op_code_cb_case0x28
                0x0000000008906bf4                op_code_normal_case0xBB
                0x0000000008903f94                op_code_cb_case0x5C
                0x0000000008907350                op_code_normal_case0x97
                0x0000000008908f74                cpu_seri_send
                0x0000000008903ae8                op_code_cb_case0x42
                0x0000000008905504                op_code_normal_case0x0B
                0x000000000890426c                op_code_cb_case0x6C
                0x000000000890566c                cpu_set_trace
                0x000000000890c644                op_code_cb_case0x96
                0x0000000008904904                op_code_cb_case0xE9
                0x0000000008909970                op_code_normal_case0xF0
                0x000000000890a6a0                op_code_normal_case0xC5
                0x0000000008905170                op_code_normal_case0x58
                0x0000000008906d34                op_code_normal_case0xB7
                0x000000000890d510                op_code_normal_case0x22
                0x0000000008905248                op_code_normal_case0x65
                0x00000000089052d4                op_code_normal_case0x6D
                0x0000000008904510                op_code_cb_case0x7B
                0x0000000008905240                op_code_normal_case0x64
                0x0000000008907a5c                op_code_cb_case0x33
                0x0000000008904474                op_code_cb_case0x78
                0x000000000890c404                op_code_cb_case0xEE
                0x0000000008904cf4                op_code_cb_case0x9B
                0x000000000890ac90                op_code_normal_case0xCA
                0x000000000890c8dc                op_code_cb_case0xF6
                0x00000000089056a8                cpu_get_ram_bank
                0x00000000089053d4                op_code_normal_case0x19
                0x000000000890741c                op_code_normal_case0x93
                0x0000000008907c68                op_code_cb_case0x2F
                0x000000000890a340                op_code_normal_case0x31
                0x00000000089045e0                op_code_cb_case0xC0
                0x0000000008904ff8                op_code_normal_case0x41
                0x0000000008906a20                op_code_normal_case0x1C
                0x0000000008905554                op_code_normal_case0x2F
                0x0000000008907de0                op_code_cb_case0x27
                0x0000000008904bbc                op_code_cb_case0x8B
                0x000000000890480c                op_code_cb_case0xDC
                0x000000000890aef8                op_code_normal_case0xD2
                0x00000000089054dc                op_code_normal_case0x23
                0x000000000890a17c                op_code_normal_case0xC0
                0x0000000008906858                op_code_normal_case0x15
                0x00000000089050f0                op_code_normal_case0x50
                0x0000000008903a18                cpu_irq_check
                0x0000000008903e28                op_code_cb_case0x54
                0x00000000089043a4                op_code_cb_case0x73
                0x000000000890b1dc                op_code_normal_case0x75
                0x0000000008905384                op_code_normal_case0x09
                0x0000000008904c84                op_code_cb_case0x95
                0x00000000089048ec                op_code_cb_case0xE8
                0x00000000089054c8                op_code_normal_case0x13
                0x0000000008909548                op_code_cb_case0x5E
                0x000000000890f304                op_code_normal_case0x86
                0x0000000008908480                op_code_cb_case0x04
                0x0000000008903bb8                op_code_cb_case0x47
                0x0000000008905318                op_code_normal_case0x7A
                0x0000000008909af0                op_code_normal_case0xC6
                0x000000000890467c                op_code_cb_case0xC8
                0x0000000008904f4c                op_code_cb_case0xBA
                0x0000000008904a24                op_code_cb_case0xF8
                0x00000000089076bc                op_code_normal_case0x8A
                0x0000000008909f14                op_code_normal_case0xD8
                0x0000000008904d08                op_code_cb_case0x9C
                0x0000000008904970                op_code_cb_case0xEF
                0x0000000008904238                op_code_cb_case0x6B
                0x0000000008904dd0                op_code_cb_case0xA7
                0x0000000008904c2c                op_code_cb_case0x91
                0x00000000089048a8                op_code_cb_case0xE4
                0x0000000008907c9c                op_code_cb_case0x2D
                0x0000000008906ba4                op_code_normal_case0xBC
                0x000000000890da24                op_code_cb_case0xCE
                0x00000000089051f0                op_code_normal_case0x60
                0x0000000008908260                op_code_cb_case0x10
                0x0000000008903e5c                op_code_cb_case0x55
                0x000000000890a84c                op_code_normal_case0xCF
                0x000000000890b888                op_code_cb_case0xBE
                0x0000000008907f7c                op_code_cb_case0x1D
                0x0000000008907a28                op_code_cb_case0x34
                0x00000000089044a8                op_code_cb_case0x79
                0x0000000008906af0                op_code_normal_case0x04
                0x0000000008905084                op_code_normal_case0x49
                0x0000000008904f20                op_code_cb_case0xB8
                0x00000000089049cc                op_code_cb_case0xF3
                0x0000000008906dac                op_code_normal_case0xB3
                0x0000000008908678                op_code_normal_case0x10
                0x0000000008907110                op_code_normal_case0x9D
                0x000000000890a76c                op_code_normal_case0xEF
                0x0000000008908418                op_code_cb_case0x07
                0x0000000008903ab4                op_code_cb_case0x41
                0x0000000008906f58                op_code_normal_case0xA8
                0x000000000890f0d4                op_code_normal_case0x8E
                0x0000000008907008                op_code_normal_case0xA3
                0x00000000089051ac                op_code_normal_case0x5B
                0x00000000089071d0                op_code_normal_case0x9B
                0x0000000008904a8c                op_code_cb_case0xFC
                0x000000000890b72c                op_code_cb_case0x06
                0x0000000008903c20                op_code_cb_case0x49
                0x000000000890a578                op_code_normal_case0xE5
                0x0000000008904eb0                op_code_cb_case0xB2
                0x0000000008909db4                op_code_normal_case0x2E
                0x0000000008905034                op_code_normal_case0x44
                0x000000000890f52c                op_code_normal_case0xF1
                0x0000000008907898                op_code_normal_case0x83
                0x0000000008903fc8                op_code_cb_case0x5D
                0x0000000008906ce4                op_code_normal_case0xB8
                0x000000000890cc3c                op_code_cb_case0x2E
                0x000000000891171c                op_code_normal_case0x6E
                0x00000000089044dc                op_code_cb_case0x7A
                0x0000000008908d70                op_code_normal_case0x76
                0x0000000008904cc8                op_code_cb_case0x99
                0x0000000008907d3c                op_code_cb_case0x2A
                0x00000000089042a0                op_code_cb_case0x6D
                0x0000000008904da4                op_code_cb_case0xA4
                0x0000000008904868                op_code_cb_case0xE1
                0x0000000008909a40                op_code_normal_case0x3E
                0x000000000890562c                op_code_normal_case0x1F
                0x0000000008907374                op_code_normal_case0x95
                0x0000000008906aac                op_code_normal_case0x0C
                0x00000000089062b8                cpu_reset
                0x0000000008904ef4                op_code_cb_case0xB5
                0x0000000008904988                op_code_cb_case0xF0
                0x0000000008906130                cpu_read_direct_ord
                0x000000000890844c                op_code_cb_case0x05
                0x0000000008903bec                op_code_cb_case0x48
                0x0000000008905590                op_code_normal_case0x37
                0x0000000008904650                op_code_cb_case0xC5
                0x000000000890a0f8                op_code_normal_case0xC8
                0x0000000008906e30                op_code_normal_case0xB0
                0x0000000008905340                op_code_normal_case0x7C
                0x000000000890cecc                op_code_normal_case0x73
                0x0000000008909464                op_code_cb_case0x76
                0x0000000008907ac0                op_code_cb_case0x31
                0x000000000890e040                cpu_irq_process
                0x0000000008905600                op_code_normal_case0x17
                0x000000000890515c                op_code_normal_case0x57
                0x000000000890522c                op_code_normal_case0x63
                0x0000000008906b38                op_code_normal_case0xBF
                0x0000000008909308                op_code_normal_case0x4E
                0x000000000890eb8c                op_code_normal_case0x35
                0x000000000890d688                op_code_cb_case0x26
                0x00000000089041d0                op_code_cb_case0x69
                0x0000000008904ba4                op_code_cb_case0x8A
                0x00000000089047f8                op_code_cb_case0xDB
                0x0000000008904de8                op_code_cb_case0xA8
                0x0000000008904c40                op_code_cb_case0x92
                0x00000000089048c0                op_code_cb_case0xE5
                0x0000000008904bfc                op_code_cb_case0x8F
                0x000000000890a2e8                op_code_normal_case0xC3
                0x0000000008907470                op_code_normal_case0x92
                0x0000000008909ce8                op_code_normal_case0xCE
                0x0000000008910510                op_code_normal_case0x34
                0x0000000008905690                cpu_get_oam
                0x0000000008905270                op_code_normal_case0x68
                0x0000000008909e5c                op_code_normal_case0xDE
                0x0000000008907fb8                op_code_cb_case0x1C
                0x000000000890d394                op_code_normal_case0xEA
                0x0000000008906e5c                op_code_normal_case0xAF
                0x0000000008904b90                op_code_cb_case0x89
                0x000000000890dc64                op_code_cb_case0xD6
                0x0000000008904b4c                op_code_cb_case0x85
                0x00000000089080b0                op_code_cb_case0x18
                0x000000000890a5d4                op_code_normal_case0xD5
                0x000000000890c764                op_code_normal_case0x32
                0x0000000008904e40                op_code_cb_case0xAC
                0x0000000008907cd0                op_code_cb_case0x2C
                0x00000000089042d4                op_code_cb_case0x6F
                0x0000000008907d74                op_code_cb_case0x29
                0x0000000008907f08                op_code_cb_case0x20
                0x00000000089040cc                op_code_cb_case0x63
                0x00000000089081e4                op_code_cb_case0x12
                0x0000000008903e90                op_code_cb_case0x57
                0x000000000890655c                op_code_normal_case0x27
                0x000000000890db48                op_code_normal_case0x02
                0x0000000008909010                cpu_write
                0x0000000008904adc                op_code_cb_case0x80
                0x0000000008904730                op_code_cb_case0xD1
                0x0000000008909bf0                op_code_normal_case0xF8
                0x000000000890433c                op_code_cb_case0x71
                0x000000000890301c                _memcpy4x
                0x000000000890505c                op_code_normal_case0x47
                0x0000000008907c0c                op_code_cb_case0x39
                0x000000000890cda8                op_code_cb_case0xE6
                0x0000000008904e00                op_code_cb_case0xA9
                0x0000000008904c58                op_code_cb_case0x93
                0x0000000008904064                op_code_cb_case0x61
                0x0000000008907518                op_code_normal_case0x90
                0x00000000089094fc                op_code_cb_case0x66
                0x0000000008907e74                op_code_cb_case0x23
                0x00000000089052ac                op_code_normal_case0x6B
                0x0000000008906d54                op_code_normal_case0xB5
                0x00000000089102d8                op_code_normal_case0x9E
                0x0000000008909abc                op_code_normal_case0x0E
                0x0000000008906e04                op_code_normal_case0xB1
                0x0000000008907bdc                op_code_cb_case0x3A
                0x00000000089045ac                op_code_cb_case0x7F
                0x00000000089051c8                op_code_normal_case0x5D
                0x00000000089096f0                op_code_normal_case0xCB
                0x0000000008905304                op_code_normal_case0x79
                0x00000000089047e0                op_code_cb_case0xDA
                0x0000000008906fa8                op_code_normal_case0xA5
                0x000000000890760c                op_code_normal_case0x8C
                0x000000000890756c                op_code_normal_case0x8F
                0x0000000008903f2c                op_code_cb_case0x5A
                0x0000000008910820                op_code_normal_case0xBE
                0x00000000089046d4                op_code_cb_case0xCC
                0x0000000008908034                op_code_cb_case0x1A
                0x00000000089046a8                op_code_cb_case0xCA
                0x0000000008903ffc                op_code_cb_case0x5F
                0x0000000008904a74                op_code_cb_case0xFB
                0x000000000890e820                op_code_cb_case0xC6
                0x0000000008909ba0                op_code_normal_case0xE6
                0x000000000890460c                op_code_cb_case0xC2
                0x000000000890ca00                op_code_normal_case0x70
                0x000000000890552c                op_code_normal_case0x2B
                0x0000000008904c98                op_code_cb_case0x97
                0x0000000008904d20                op_code_cb_case0x9D
                0x0000000008908308                op_code_cb_case0x0C
                0x0000000008903d24                op_code_cb_case0x4F
                0x00000000089052f0                op_code_normal_case0x78
                0x000000000890a264                op_code_normal_case0xD0
                0x0000000008907714                op_code_normal_case0x89
                0x00000000089070c8                op_code_normal_case0x9F
                0x000000000890ad9c                op_code_normal_case0xCC
                0x0000000008903c88                op_code_cb_case0x4B
                0x000000000890cfe8                op_code_normal_case0xE0
                0x00000000089060a4                cpu_write_direct
                0x0000000008907af0                op_code_cb_case0x30
                0x000000000890440c                op_code_cb_case0x75
                0x0000000008905578                op_code_normal_case0x3F
                0x00000000089092dc                op_code_normal_case0x56
                0x0000000008904b60                op_code_cb_case0x87
                0x00000000089047b4                op_code_cb_case0xD8
                0x0000000008905148                op_code_normal_case0x55
                0x00000000089098f8                op_code_normal_case0xD6
                0x0000000008905464                op_code_normal_case0x39
                0x0000000008905684                cpu_get_ram
                0x000000000890a510                op_code_normal_case0x11
                0x0000000008909390                op_code_normal_case0x3A
                0x000000000890a8bc                op_code_normal_case0xE7
                0x00000000089055b0                op_code_normal_case0x07
                0x00000000089068ac                op_code_normal_case0x0D
                0x000000000890e944                writew
                0x0000000008907930                op_code_normal_case0x81
                0x0000000008911ac4                op_code_normal_case0x5E
                0x0000000008904d90                op_code_cb_case0xA3
                0x0000000008904850                op_code_cb_case0xE0
                0x00000000089100d4                op_code_normal_case0xA6
                0x0000000008903f60                op_code_cb_case0x5B
                0x00000000089074c4                op_code_normal_case0x91
                0x00000000089096a4                readw
                0x00000000089084ec                op_code_cb_case0x02
                0x0000000008903b84                op_code_cb_case0x45
                0x0000000008904aa8                op_code_cb_case0xFD
                0x000000000890525c                op_code_normal_case0x67
                0x0000000008904f78                op_code_cb_case0xBC
                0x000000000890500c                op_code_normal_case0x42
                0x0000000008906994                op_code_normal_case0x2C
                0x0000000008905120                op_code_normal_case0x53
                0x000000000890a630                op_code_normal_case0xFF
                0x000000000890d23c                op_code_cb_case0x3E
                0x000000000890f924                op_code_normal_case0xE1
                0x0000000008907068                op_code_normal_case0xA1
                0x000000000890c2ac                op_code_cb_case0x36
                0x0000000008904cdc                op_code_cb_case0x9A
                0x000000000890495c                op_code_cb_case0xED
                0x000000000890d908                op_code_normal_case0x12
                0x0000000008910e00                op_code_normal_case0xC1
                0x00000000089056d0                cpu_get_clock
                0x0000000008906ea8                op_code_normal_case0xAC
                0x0000000008909c34                op_code_normal_case0x26
                0x0000000008904624                op_code_cb_case0xC3
                0x000000000890ad28                op_code_normal_case0xFA
                0x0000000008906524                op_code_cb_case0x00
                0x0000000008903b1c                op_code_cb_case0x43
                0x0000000008904308                op_code_cb_case0x70
                0x000000000890a478                op_code_normal_case0xDA
                0x000000000890cb1c                op_code_cb_case0x86
                0x00000000089056f4                cpu_get_c_regs
                0x000000000890479c                op_code_cb_case0xD7
                0x0000000008908374                op_code_cb_case0x0A
                0x0000000008903cf0                op_code_cb_case0x4D
                0x0000000008903a80                op_code_cb_case0x40
                0x00000000089049f8                op_code_cb_case0xF5
                0x000000000890a7dc                op_code_normal_case0xD7
                0x0000000008904e84                op_code_cb_case0xB0
                0x000000000890d7e4                op_code_cb_case0xDE
                0x0000000008904be8                op_code_cb_case0x8D
                0x00000000089081a8                op_code_cb_case0x13
                0x0000000008903ec4                op_code_cb_case0x58
                0x00000000089067b4                op_code_normal_case0x25
                0x00000000089080f0                op_code_cb_case0x17
                0x0000000008904af4                op_code_cb_case0x81
                0x0000000008904744                op_code_cb_case0xD2
                0x000000000890532c                op_code_normal_case0x7B
                0x0000000008904fa4                op_code_cb_case0xBF
                0x0000000008904a58                op_code_cb_case0xFA
                0x000000000890aa74                op_code_normal_case0xC7
                0x0000000008904fbc                op_code_cb_case0x01
                0x0000000008903b50                op_code_cb_case0x44
                0x0000000008904544                op_code_cb_case0x7C
                0x0000000008905540                op_code_normal_case0x3B
                0x0000000008907b80                op_code_cb_case0x3C
                0x000000000890a6fc                op_code_normal_case0xF7
                0x0000000008905118                op_code_normal_case0x52
                0x0000000008909de8                op_code_normal_case0xFE
                0x000000000890a410                op_code_normal_case0x21
                0x00000000089050c8                op_code_normal_case0x4D
                0x000000000890e444                cpu_exec
                0x000000000890b2f4                op_code_cb_case0x1E
                0x000000000890eea8                op_code_normal_case0x96
                0x0000000008907f3c                op_code_cb_case0x1F
                0x000000000890d120                op_code_normal_case0x71
                0x0000000008904664                op_code_cb_case0xC7
                0x0000000008902f38                cpu_save_state
                0x00000000089075b4                op_code_normal_case0x8D
                0x0000000008904e14                op_code_cb_case0xAA
                0x0000000008904e2c                op_code_cb_case0xAB
                0x0000000008903044                _memcpy40
                0x0000000008904d4c                op_code_cb_case0xA0
                0x0000000008905298                op_code_normal_case0x6A
                0x00000000089079c8                op_code_cb_case0x37
                0x0000000008906f00                op_code_normal_case0xAA
                0x0000000008907170                op_code_normal_case0x9C
                0x0000000008906f2c                op_code_normal_case0xA9
                0x000000000890569c                cpu_get_stack
                0x0000000008909a78                op_code_normal_case0x18
                0x0000000008903df4                op_code_cb_case0x53
                0x0000000008903cbc                op_code_cb_case0x4C
                0x00000000089045f8                op_code_cb_case0xC1
                0x00000000089054f0                op_code_normal_case0x33
                0x0000000008904578                op_code_cb_case0x7D
                0x000000000890c528                op_code_normal_case0x74
                0x0000000008904204                op_code_cb_case0x6A
                0x0000000008906808                op_code_normal_case0x1D
                0x00000000089051dc                op_code_normal_case0x5F
                0x0000000008906d80                op_code_normal_case0xB4
                0x0000000008907e40                op_code_cb_case0x24
                0x0000000008904168                op_code_cb_case0x67
                0x0000000008904bd0                op_code_cb_case0x8C
                0x0000000008904824                op_code_cb_case0xDD
                0x0000000008906f84                op_code_normal_case0xA7
                0x000000000890a200                op_readw
                0x0000000008907800                op_code_normal_case0x85
                0x0000000008907b54                op_code_cb_case0x3D
                0x0000000008904718                op_code_cb_case0xD0
                0x0000000008907230                op_code_normal_case0x9A
                0x00000000089056e8                cpu_get_halt
                0x0000000008905284                op_code_normal_case0x69
                0x0000000008906764                op_code_normal_case0x2D
                0x0000000008904e9c                op_code_cb_case0xB1
                0x0000000008907290                op_code_normal_case0x99
                0x0000000008909c6c                op_code_normal_case0x20
                0x00000000089056dc                cpu_get_speed
                0x00000000089097c8                op_code_normal_case0x30
                0x000000000890be28                op_code_normal_case0xE2
                0x00000000089054b4                op_code_normal_case0x03
                0x0000000008905070                op_code_normal_case0x48
                0x000000000890b9a8                op_code_cb_case0xB6
                0x00000000089049a0                op_code_cb_case0xF1
                0x0000000008904d34                op_code_cb_case0x9F
                0x0000000008909ee0                op_code_normal_case0x1E
                0x0000000008907ea4                op_code_cb_case0x22
                0x0000000008904d78                op_code_cb_case0xA2
                0x0000000008904134                op_code_cb_case0x65
                0x0000000008910a48                op_code_normal_case0xD1
                0x0000000008908168                op_code_cb_case0x14
                0x0000000008903ef8                op_code_cb_case0x59
                0x0000000008909844                op_code_normal_case0x28
                0x0000000008904a40                op_code_cb_case0xF9
                0x00000000089055d4                op_code_normal_case0x0F
                0x00000000089056b4                cpu_set_ram_bank
                0x0000000008904098                op_code_cb_case0x62
                0x000000000890fed8                op_code_normal_case0xAE
                0x0000000008904d64                op_code_cb_case0xA1
                0x000000000890784c                op_code_normal_case0x84
                0x0000000008906714                op_code_normal_case0x3D
                0x00000000089069d8                op_code_normal_case0x24
                0x000000000890a99c                op_code_normal_case0xD4
                0x00000000089038b8                cpu_restore_state
                0x000000000890a92c                op_code_normal_case0xDF
                0x00000000089079f8                op_code_cb_case0x35
                0x0000000008904e6c                op_code_cb_case0xAF
                0x0000000008904944                op_code_cb_case0xEC
                0x000000000890397c                cpu_irq
                0x000000000890ae74                op_code_normal_case0x08
                0x0000000008904f38                op_code_cb_case0xB9
                0x00000000089049e0                op_code_cb_case0xF4
                0x000000000890b0c0                op_code_normal_case0x77
                0x0000000008905678                cpu_get_vram
                0x0000000008905198                op_code_normal_case0x5A
                0x0000000008904b08                op_code_cb_case0x82
                0x000000000890475c                op_code_cb_case0xD3
                0x00000000089083ac                op_code_cb_case0x09
                0x000000000890508c                op_code_normal_case0x4A
                0x0000000008905020                op_code_normal_case0x43
                0x0000000008906ed4                op_code_normal_case0xAB
                0x0000000008904cb0                op_code_cb_case0x98
                0x000000000890b5cc                op_code_cb_case0x0E
                0x0000000008907e10                op_code_cb_case0x25
                0x000000000890419c                op_code_cb_case0x68
                0x0000000008905f4c                cpu_write_direct_ord
                0x00000000089046ec                op_code_cb_case0xCD
                0x000000000890974c                op_code_normal_case0x38
                0x0000000008907038                op_code_normal_case0xA2
                0x000000000890935c                op_code_normal_case0xF2
                0x000000000890dd88                op_code_normal_case0xF5
                0x0000000008905658                op_code_normal_case0xE9
                0x0000000008904dbc                op_code_cb_case0xA5
                0x000000000890487c                op_code_cb_case0xE2
                0x0000000008905134                op_code_normal_case0x54
                0x000000000890b460                op_code_cb_case0x16
                0x00000000089052dc                op_code_normal_case0x6F
                0x0000000008904b34                op_code_cb_case0x84
                0x0000000008904788                op_code_cb_case0xD5
                0x0000000008906c94                op_code_normal_case0xB9
                0x0000000008903dc0                op_code_cb_case0x52
                0x000000000890e6ec                op_code_normal_case0x36
                0x00000000089085e4                op_code_normal_case0xFB
                0x0000000008905368                op_code_normal_case0x7F
                0x0000000008904370                op_code_cb_case0x72
                0x00000000089094b0                op_code_cb_case0x6E
                0x0000000008907d08                op_code_cb_case0x2B
                0x000000000890776c                op_code_normal_case0x88
 .text          0x0000000008911c90     0x4184 gbcore/gb.o
                0x0000000008911f14                gb_run
                0x0000000008911e98                gb_init
                0x000000000891239c                gb_restore_state
                0x0000000008911cb8                gb_unhook_extport
                0x0000000008911cc4                gb_set_skip
                0x0000000008911ccc                gb_refresh_pal
                0x0000000008911db0                gb_fill_vframe
                0x0000000008914094                gb_save_state
                0x0000000008911cd4                exiting_lcdc
                0x0000000008911c90                gb_hook_extport
                0x0000000008911dc4                gb_reset
 .text          0x0000000008915e14     0x3310 gbcore/lcd.o
                0x0000000008916000                set_ztbl
                0x0000000008916b24                sgb_invalidate_color
                0x0000000008916ae8                lcd_get_pal
                0x00000000089176a4                lcd_bg_render_colored
                0x0000000008916ad8                lcd_clear_win_count
                0x0000000008916b48                sgb_set_color
                0x000000000891833c                lcd_win_render
                0x00000000089160c8                lcd_sprite_render
                0x0000000008916b9c                gb_invalidate_all_colors
                0x00000000089171d4                tilePalReinit
                0x0000000008915f00                dattrans2n
                0x00000000089186b0                lcd_bg_render
                0x0000000008916afc                gbc_invalidate_color
                0x0000000008915e40                lcd_get_enable
                0x0000000008917100                tileMapGetVramChecksum
                0x000000000891721c                lcd_init
                0x0000000008916b7c                gb_invalidate_palette
                0x0000000008915e14                lcd_set_mpal
                0x0000000008915e20                lcd_get_mpal
                0x0000000008918ae0                lcd_render
                0x0000000008916660                lcd_sprite_render_color
                0x0000000008915e54                lcd_reset
                0x0000000008917eb4                lcd_bg_render_color
                0x0000000008916c24                lcd_sprite_render_colored
                0x0000000008915e2c                lcd_set_enable
                0x00000000089172fc                lcd_win_render_colored
                0x0000000008917aec                lcd_win_render_color
                0x00000000089171a4                tilePalInit
 .text          0x0000000008919124     0x1930 gbcore/mbc.o
                0x0000000008919270                mbc_get_state
                0x000000000891963c                mbc_reset
                0x0000000008919db4                mbc_mbc7_write
                0x0000000008919a90                mbc_mbc2_write
                0x0000000008919874                mbc_mmm01_write
                0x000000000891a028                mbc_mbc3_write
                0x0000000008919474                mbc_ext_read
                0x000000000891a81c                mbc_init
                0x000000000891a3e8                mbc_ext_write
                0x000000000891912c                mbc_set_write
                0x000000000891a3b4                mbc_set_page
                0x0000000008919384                mbc_set_state
                0x0000000008919e9c                mbc_mbc5_write
                0x0000000008919124                mbc_read
                0x0000000008919464                mbc_nop
                0x000000000891946c                mbc_tama5_write
                0x000000000891a1f4                mbc_mbc1_write
                0x0000000008919bd0                mbc_huc1_write
                0x0000000008919ad4                mbc_huc3_write
 .text          0x000000000891aa54      0x250 gbcore/rom.o
                0x000000000891aad4                rom_set_first
                0x000000000891aac8                rom_get_loaded
                0x000000000891aaf0                rom_load_rom
                0x000000000891aaa4                rom_get_sram_size
                0x000000000891aa54                rom_init
                0x000000000891aa70                rom_has_battery
 .text          0x000000000891aca4     0x8e30 gbcore/sgb.o
                0x00000000089203a4                sgb_sound_transfer
                0x0000000008920500                sgb_pct_trn
                0x000000000891c9c8                sgb_setATF
                0x000000000891ca6c                sgb_reset
                0x0000000008921610                sgb_execute_command
                0x000000000891cd08                sgb_render_screen
                0x000000000891dfb4                set_palette
                0x000000000891bb60                sgb_multiplayer_req
                0x000000000891f084                sgb_chr_trn
                0x000000000891cd00                sgb_init
                0x000000000891aca4                sgb_draw_border_tile
                0x000000000891c584                sgb_attribute_line
                0x000000000891bbf8                sgb_attribute_block
                0x000000000891ce64                copy_palette
                0x000000000891c674                sgb_attribute_divide
                0x00000000089237bc                sgb_transfer
                0x000000000891d0b8                sgb_render_border
                0x0000000008920214                init_mem_palette
                0x000000000891c534                sgb_SetRowPalette
                0x000000000891bb4c                sgb_reset_state
                0x000000000891c4f0                sgb_SetColumnPalette
                0x000000000891c834                sgb_attribute_character
                0x0000000008920074                sgb_set_ATFlist
 .text          0x0000000008923ad4    0x227cc cpu/z80.o
                0x000000000892bd74                z80_get_elapsed_cycles
                0x000000000892bb08                z80_get_cycle_table
                0x000000000892bdb4                z80_exit
                0x000000000892ba48                z80_get_context
                0x000000000893d798                z80_set_irq_line
                0x000000000892be10                z80_reset
                0x000000000892bd5c                z80_set_irq_callback
                0x000000000892bb54                z80_get_reg
                0x000000000892bd68                z80_reset_cycle_count
                0x0000000008940f78                z80_execute
                0x000000000892bf14                z80_init
                0x000000000892bb30                z80_set_cycle_table
                0x000000000893d928                z80_set_reg
                0x000000000892baa8                z80_set_context
                0x000000000892b9d0                z80_burn
 .text          0x00000000089462a0      0x680 memz80.o
                0x00000000089464f8                z80_read_unmapped
                0x00000000089463ec                smsj_port_w
                0x0000000008946888                sms_port_r
                0x0000000008946490                sms_port_w
                0x000000000894661c                ggms_port_r
                0x0000000008946370                gg_port_w
                0x00000000089467bc                smsj_port_r
                0x00000000089466e0                gg_port_r
                0x000000000894655c                md_port_r
                0x00000000089462ac                md_port_w
                0x0000000008946308                ggms_port_w
                0x00000000089462a0                memctrl_w
 .text          0x0000000008946920      0x640 pio.o
                0x0000000008946940                ioctrl_w
                0x0000000008946a80                sio_r
                0x0000000008946c1c                sio_w
                0x0000000008946978                pio_reset
                0x00000000089469a4                pio_init
                0x0000000008946a78                device_r
                0x0000000008946928                system_assign_device
                0x0000000008946c88                input_r
                0x0000000008946920                pio_shutdown
 .text          0x0000000008946f60      0xb44 vdp.o
                0x00000000089472d8                vdp_reg_w
                0x0000000008946f68                viewport_check
                0x0000000008947228                vdp_read
                0x00000000089473a8                tms_write
                0x00000000089479e0                vdp_reset
                0x00000000089474ec                md_vdp_write
                0x0000000008947678                gg_vdp_write
                0x0000000008946f60                vdp_shutdown
                0x0000000008947848                vdp_write
                0x000000000894714c                vdp_counter_r
                0x0000000008947a9c                vdp_init
 .text          0x0000000008947aa4     0x1064 render.o
                0x00000000089482ac                palette_sync
                0x0000000008948080                update_bg_pattern_cache
                0x0000000008948400                render_line
                0x00000000089487b4                render_bg_sms
                0x0000000008947b50                render_obj_sms_nospritelimit
                0x0000000008947b14                render_shutdown
                0x0000000008947dd0                render_obj_sms
                0x0000000008947b1c                pspSetObjRenderingRoutine
                0x0000000008948624                render_init
                0x0000000008947aa4                set_tms_palette
                0x000000000894822c                remap_8_to_16
                0x000000000894856c                render_reset
 .text          0x0000000008948b08      0x684 sms.o
                0x0000000008948d40                writemem_mapper_codies
                0x0000000008948dc0                writemem_mapper_sega
                0x0000000008948b38                sms_mapper_w
                0x0000000008948f64                sms_init
                0x0000000008948e08                sms_irq_callback
                0x0000000008948b30                sms_shutdown
                0x0000000008948e10                sms_reset
                0x0000000008948b08                writemem_mapper_none
 .text          0x000000000894918c      0x364 system.o
                0x0000000008949250                system_init
                0x0000000008949214                system_shutdown
                0x000000000894920c                system_poweron
                0x000000000894929c                system_frame
                0x000000000894918c                system_reset
 .text          0x00000000089494f0      0x914 sound/sound.o
                0x0000000008949810                sound_shutdown
                0x000000000894958c                stream_update
                0x00000000089497d8                sound_reset
                0x0000000008949620                sound_update
                0x00000000089498dc                sound_update_ex
                0x00000000089495ac                fmunit_write
                0x00000000089499d0                sound_init
                0x0000000008949534                sound_mixer_callback
                0x00000000089495a0                fmunit_detect_w
                0x0000000008949730                sound_update_gb
                0x0000000008949dd4                sound_change
                0x00000000089495d8                psg_write
                0x0000000008949594                fmunit_detect_r
                0x00000000089495fc                psg_stereo_w
                0x00000000089494f0                mix
 .text          0x0000000008949e04      0xb44 sound/sn76489.o
                0x000000000894a02c                SN76489_Update
                0x0000000008949efc                SN76489_GetContextSize
                0x000000000894a7e0                SN76489_SetContext
                0x0000000008949eb4                SN76489_Config
                0x000000000894a00c                SN76489_GGStereoWrite
                0x000000000894a864                SN76489_Init
                0x0000000008949ee0                SN76489_GetContextPtr
                0x0000000008949eac                SN76489_Shutdown
                0x0000000008949f04                SN76489_Write
                0x0000000008949e04                SN76489_Reset
                0x000000000894a75c                SN76489_GetContext
 .text          0x000000000894a948     0xce5c sound/emu2413.o
                0x0000000008951460                OPLL_new
                0x000000000894ac4c                OPLL_setClock
                0x000000000894b21c                OPLL_setMask
                0x000000000894a948                dump2patch
                0x0000000008950a08                OPLL_reset_patch
                0x0000000008954ca4                OPLL_calc
                0x0000000008950200                OPLL_write
                0x0000000008950aa8                OPLL_copyPatch
                0x0000000008950af0                OPLL_reset
                0x000000000894aa70                OPLL_forceRefresh
                0x000000000894b250                OPLL_writeReg
                0x000000000894b214                OPLL_close
                0x00000000089501cc                OPLL_writeIO
                0x000000000895021c                OPLL_init
                0x000000000894b234                OPLL_toggleMask
                0x00000000089513d0                OPLL_delete
                0x0000000008951ff4                OPLL_update
 .text          0x00000000089577a4     0x390c sound/ym2413.o
                0x0000000008959abc                YM2413UpdateOne
                0x00000000089577f4                YM2413Shutdown
                0x00000000089577a4                YM2413Read
                0x00000000089577d4                YM2413SetUpdateHandler
                0x0000000008959258                YM2413Init
                0x000000000895999c                YM2413ResetChip
                0x00000000089591dc                YM2413Write
 .text          0x000000000895b0b0      0x928 sound/fmintf.o
                0x000000000895b1ac                FM_Update
                0x000000000895b0c4                FM_GetContext
                0x000000000895b2c4                FM_Init
                0x000000000895b0b8                FM_GetContextPtr
                0x000000000895b0b0                FM_GetContextSize
                0x000000000895b258                FM_Shutdown
                0x000000000895b12c                FM_Write
                0x000000000895b35c                FM_SetContext
                0x000000000895b1f0                FM_Reset
                0x000000000895b8cc                FM_WriteReg
 .text          0x000000000895b9d8      0x774 psp/gameboy_render.o
                0x000000000895bde8                gbe_getTime
                0x000000000895ba78                set_gb_type
                0x000000000895b9d8                gbe_reset
                0x000000000895ba40                gbe_refresh
                0x000000000895b9f8                gbe_setBibrate
                0x000000000895bc38                gbe_setTime
                0x000000000895bf3c                gbe_updatePad
                0x000000000895ba00                gbe_getSensor
                0x000000000895c124                gbe_init
                0x000000000895ba28                renderer_get_timer_state
                0x000000000895ba34                renderer_set_timer_state
 .text          0x000000000895c14c     0x1b74 psp/VideoGu.o
                0x000000000895c644                VideoGuScreenClear
                0x000000000895d8a8                VideoGuUpdate
                0x000000000895d930                MAKE_COLOR
                0x000000000895cbc4                pspScaleImage_core
                0x000000000895d3c4                VideoGuUpdate_Core
                0x000000000895c690                DisplayBenchmark
                0x000000000895c550                RecolorPalette
                0x000000000895c7a4                VideoGuTerm
                0x000000000895c7ac                VideoGuInit
                0x000000000895c2a0                HSLToRGB
                0x000000000895c880                RecolorPaletteVibrance
                0x000000000895c3d8                RecolorPaletteGray
                0x000000000895c14c                RGBToHSL
 .text          0x000000000895dcc0      0x31c psp/Controls.o
                0x000000000895dcc8                MiscUpdate
                0x000000000895dcc0                ControlsTerm
                0x000000000895dd2c                ControlsInit
                0x000000000895dd4c                ControlsUpdate
                0x000000000895dcd0                ControlsShowMenu
 .text          0x000000000895dfdc      0x9dc psp/PspSound.o
                0x000000000895e004                SoundUpdate
                0x000000000895dfdc                SoundTerm
                0x000000000895e0bc                SoundResample
                0x000000000895e0b0                SoundResume
                0x000000000895e0a0                SoundPause
                0x000000000895e1d0                AudioGet
                0x000000000895e158                SoundWaitTerm
                0x000000000895e8a4                SoundInit
 .text          0x000000000895e9b8     0x142c psp/SMS.o
                0x000000000895f7c8                MenuPlusAction
                0x000000000895f334                machine_frame
                0x000000000895f7a4                machine_poweroff
                0x000000000895f2a8                gb_save_sram
                0x000000000895e9b8                SmsInit
                0x000000000895e9c8                gb_doFrame
                0x000000000895f38c                machine_manage_sram
                0x000000000895e9f4                machine_reset
                0x000000000895f89c                SmsTerm
                0x000000000895ea60                MenuOptionsConfigure
                0x000000000895f214                gb_load_sram
                0x000000000895f968                SmsEmulate
 .text          0x000000000895fde4       0x8c psp/main.o
                0x000000000895fde4                main
 .text          0x000000000895fe70     0xd8e0 psp/menuplus.o
                0x000000000896a2c0                fctMainVideoCountry
                0x0000000008961314                LoadDefaultMachineConfig
                0x000000000896b220                menuPlusShowMenu
                0x000000000896a210                fctMainSoundStereo
                0x00000000089689f8                MessageBoxTemp
                0x00000000089650e0                pspLoadState
                0x000000000896a270                fctMainVideoVSync
                0x0000000008962234                FctImgBack
                0x0000000008960e0c                menuSetStatusBarMessageIndirect
                0x0000000008967e34                fctMsgBoxSaveConfig_Handle
                0x00000000089619c4                fctMainFileSram
                0x00000000089691f0                HandleBackground
                0x0000000008963e48                RangeSetSubMenuValueInt
                0x000000000896a020                fctMainVideoVibrance
                0x0000000008960310                adapteAnglef
                0x000000000896a060                fctMainFileSramAutosave
                0x0000000008960358                menuGetMenuKeys
                0x0000000008966df0                HandleSubMenu
                0x0000000008960590                GetJustFileName
                0x000000000896d490                fctMainFileStateDelete
                0x000000000896357c                DrawWindow
                0x000000000896a200                fctMainSoundBoost
                0x0000000008963dbc                fctMainCtrlAnalogCalibration
                0x000000000896892c                MessageBoxEx
                0x0000000008960a34                SubMenuItemPositionSelected
                0x0000000008960960                fctMenuMainSound
                0x00000000089622bc                menuSoundShowDisplay
                0x0000000008962fb4                DrawWindowBox
                0x000000000895feac                safe_strcat
                0x00000000089605e0                safe_strcpy_offset
                0x000000000896a230                fctMainSoundEnabled
                0x0000000008960488                menuGetMenuKey
                0x0000000008960200                GetStringWidth
                0x0000000008960e70                CloseSubMenu
                0x0000000008962570                DrawHint
                0x0000000008960b18                CreateDigitsFromStr
                0x0000000008961d3c                machine_load_state
                0x000000000896d060                fctMenuMainFile
                0x0000000008960540                menuHandleStatusMessage
                0x000000000896a000                fctMenuMainVideoRenderLeftBar
                0x00000000089604dc                menuDisplayStatusMessage
                0x0000000008960950                fctMsgBoxAbout_Close
                0x0000000008960c60                SelectSubMenu
                0x000000000896a0b0                fctMainCtrlAnalogToDPad
                0x000000000896a090                fctMainCtrlRedefineAutofireRate
                0x00000000089666b4                menuStandardVblank
                0x0000000008964d10                menuDrawIcons
                0x00000000089665f0                DrawChoice
                0x000000000896a2b0                fctMainVideoScaling
                0x0000000008965248                DoesSlotExists
                0x00000000089632fc                MyDrawGradientRect
                0x0000000008969ff0                fctMenuMainVideoRenderSpriteLimit
                0x0000000008960970                GetSubMenuItemByInt
                0x0000000008961228                SetSubMenuItemValueByInt
                0x0000000008960de0                menuSetStatusBarMessageDirect
                0x00000000089626cc                DrawBackground
                0x000000000896c65c                menuTakeScreenshot
                0x0000000008961e0c                FctImgNumbers
                0x0000000008961020                fctMsgBoxSaveConfig_Close
                0x000000000896a0c0                fctMainFileStateLoad
                0x000000000896a040                fctMenuMainFileMusicRepeat
                0x0000000008960efc                InitChoice
                0x0000000008965624                HandleWindow
                0x0000000008961380                LoadUserDefaultConfig
                0x00000000089695c8                ShowMenuJoystickCalibration
                0x0000000008961540                DrawDigitScroll
                0x0000000008968070                MyReadKeys
                0x0000000008961480                SaveUserDefaultConfig
                0x0000000008968014                HandleChoice
                0x0000000008960ec8                HandleHint
                0x0000000008961070                mySetScreenClipping
                0x00000000089622b4                MyDrawRect
                0x0000000008960244                mod
                0x0000000008961c30                makeDir
                0x0000000008961fe4                FctFtStandard
                0x0000000008969d00                GestionEventStandardInt
                0x0000000008960a24                SelectSubMenuItemPosition
                0x00000000089645d8                fctMsgBoxAbout_Handle
                0x0000000008962fac                MyDrawFillRect
                0x0000000008960f3c                CloseWindow
                0x0000000008962064                loadBackgroundImage
                0x00000000089609bc                SelectSubMenuItemPositionByValueInt
                0x000000000896a2f0                menuRedefineGetNewKey
                0x0000000008965540                fctMsgBoxTemp_Handle
                0x000000000896a290                fctMainVideoFrameskip
                0x0000000008969fe0                fctMenuMainVideoSyncMode
                0x000000000896a1f0                fctMainSoundTurboSound
                0x00000000089652e4                CheckFichierPalette
                0x00000000089657d0                fctMsgBoxReloadConfig
                0x00000000089601b8                PushAlpha
                0x00000000089619f8                CreeImageBord
                0x0000000008960f98                MessageBox_DefineButtons
                0x0000000008969fb0                fctMainSmsTweakZ80
                0x000000000896026c                mod_f
                0x0000000008963c7c                menuDrawImageSmallFloat
                0x0000000008963304                MySetTextColorEx
                0x0000000008960ebc                InitHint
                0x000000000896b03c                pspSaveState
                0x00000000089601dc                PopAlpha
                0x000000000895fe70                safe_strcpy
                0x000000000896a2d0                fctMainMiscPspClock
                0x000000000896a2e0                fctMainMiscPspClockNumeric
                0x0000000008961018                fctMsgBoxReloadConfig_Close
                0x0000000008960fec                InitMenus
                0x000000000896a070                fctMainCtrlAnalogCalibrationEnabled
                0x0000000008968aec                fctMenuMainMisc
                0x000000000895ff04                GetTextBoxHeight
                0x000000000896a500                fctMainCtrlShortcuts
                0x0000000008969fc0                fctMenuMainVideoGBType
                0x0000000008960638                menuGetKeyName
                0x000000000896a280                fctMainVideoFrameskipMax
                0x000000000896a010                fctMenuMainVideoRenderDepth
                0x0000000008960028                menuKeysAnalogApply
                0x000000000896a220                fctMainSoundRate
                0x0000000008961c0c                fileExists
                0x0000000008960968                fctMenuMainCtrl
                0x0000000008960a54                SubMenuItemPositionCanceled
                0x0000000008961eb8                FctImgIcons
                0x0000000008961af4                menuLoadFilesMin
                0x000000000896c920                ControlsMenuUpdate
                0x0000000008966c1c                FillExistingSlots
                0x0000000008965a7c                DrawSubMenu
                0x0000000008960fe4                fctMsgBoxTemp_Close
                0x000000000896d310                fctMainFileStateSave
                0x00000000089616a4                InitConfig
                0x000000000896a260                fctMainMiscUIBackground
                0x000000000896885c                MessageBoxAsync
                0x0000000008961d6c                extractFilePath
                0x0000000008960f0c                CloseChoice
                0x0000000008961028                menuDrawStatusMessage
                0x0000000008960bfc                GetIntFromDigits
                0x0000000008963e0c                mySetScreenClippingEx
                0x000000000896a2a0                fctMainVideoSmoothing
                0x0000000008964f2c                pspGetStateNameEx
                0x0000000008960da4                fadeInit
                0x0000000008961f64                FctFtGlow
                0x00000000089634cc                MySetTextColor
                0x000000000896a250                fctMainVideoGamma
                0x000000000896212c                menuLoadFiles
                0x000000000896a050                fctMenuMainFileMusicFrequency
                0x00000000089655b4                DestroyWindow
                0x0000000008969fd0                fctMenuMainVideoGBColorization
                0x0000000008961bc4                fctMenuMainVideoGB
                0x000000000896a030                fctMenuMainVideoBrightnessMode
                0x0000000008968524                ShowWindow
                0x00000000089602d8                rangeAnglef
                0x000000000896108c                SetTurbo
                0x0000000008961cbc                OuvreFichierPalette
                0x0000000008964038                UpdateMenus
                0x0000000008960958                fctMenuMainState
                0x0000000008963aa8                DrawBackgroundAfter
                0x0000000008969c40                BatteryWarning
                0x0000000008963d34                fctMainFileMusic
                0x0000000008961c8c                machine_save_state
                0x00000000089614b8                SaveUserDefaultConfigSpecific
                0x000000000896a240                fctMainVideoCpuTime
                0x00000000089613c8                menuUsbUpdate
                0x000000000896a1e0                fctMainSoundSyncMode
                0x000000000896aba4                fctMainCtrlRedefine
                0x00000000089650c8                pspGetStateName
                0x000000000896a080                fctMainCtrlAnalogTreshold
                0x00000000089611dc                fctMainMiscCommands
                0x0000000008960948                fctMenuMainVideo
                0x0000000008968e84                fctMsgBoxSaveConfig
                0x000000000896a0a0                fctMainVideoTurboSkip
                0x00000000089619f0                MyDrawLine
                0x0000000008967f24                fctMsgBoxReloadConfig_Handle
                0x0000000008960a74                CreateDigitsFromInt
 .text          0x000000000896d750     0x2b64 psp/menuplus2.o
                0x000000000896d990                fctPaletteList
                0x000000000896d79c                SJISCopy
                0x000000000896ede4                AddToMyPlaces
                0x000000000896e428                SaveMyPlacesFile
                0x000000000896f008                ShowMenuFileSelect
                0x000000000896e5e0                myPlacesRealloc
                0x000000000896e11c                menuFileSelectFillMyPlace
                0x000000000896df38                fctMsgBoxChoice_Handle
                0x000000000896d83c                getSmallFileName
                0x000000000896e020                RemoveMyPlacesEntry
                0x000000000896e86c                menuFileSelectSortFiles
                0x000000000896da08                fctMsgBoxChoice
                0x000000000896d89c                fctMsgBoxChoice_Close
                0x000000000896dd48                menuShowPaletteList
                0x000000000896ff08                LoadMyPlacesFile
                0x000000000896d750                fctMenuFileSelect
                0x000000000896dab8                ShowChoiceMsgBoxEx
                0x000000000896ddbc                ShowChoiceMsgBox
                0x000000000896d938                InitMyPlacesBase
                0x000000000896ebd4                menuFileSelectFillFiles
                0x000000000896da78                fctMsgBoxChoice_Destroy
                0x000000000896d8b0                SetMyPlacesEntry
                0x000000000896e6bc                menuFileItemCompare
                0x000000000896e38c                getExtId
 .text          0x00000000089702b4     0x3d08 psp/config.o
                0x0000000008971fec                FctColorIt_AddTileRule
                0x00000000089703cc                ScriptBegin
                0x0000000008973ea8                FctGoto
                0x0000000008970b2c                ScriptAjouteProcedures
                0x000000000897395c                FctMsgBox
                0x0000000008970590                GetChaine
                0x00000000089721f4                FctColorIt_SetPalette
                0x000000000897069c                TrouveIdentificateur
                0x00000000089703d4                atox
                0x00000000089702c8                GetAddedColor
                0x0000000008972750                ExecScript
                0x0000000008970da8                ScriptEnd
                0x00000000089719cc                FctTabMenuColCursor
                0x000000000897038c                getOffsetedAddr
                0x0000000008971654                GetVariableAddress
                0x0000000008970730                ScriptError
                0x00000000089702b4                FctFin
                0x0000000008971e84                FctColorIt_AddTileCrc
                0x000000000897256c                SetVariableValue
                0x00000000089711c4                ScriptSave
                0x0000000008973554                OuvreFichierConfig
                0x0000000008973c20                FctFaire
                0x0000000008971c1c                FctColorIt_SetTile
                0x00000000089704fc                ProchArgEntier
                0x0000000008970764                GetVariableValue
                0x00000000089712c4                GetEntier
                0x0000000008970330                strlwrmixcmp
                0x0000000008970a0c                ScriptAjouteProcedures_Add
                0x000000000897238c                FctPalette
                0x0000000008970470                atob
                0x0000000008970db0                ScriptSave_Core
                0x00000000089735c0                FctColorIt_SetTilesetData
                0x0000000008971278                FctMusicFilename
 .text          0x0000000008973fbc      0x254 psp/usb.o
                0x0000000008973fc4                oslDeinitUsbStorage
                0x0000000008973fbc                oslStopUsbStorage
                0x0000000008974054                oslLoadStartModule
                0x000000000897404c                oslStartUsbStorage
                0x00000000089740b4                oslInitUsbStorage
 .text          0x0000000008974210     0x166c psp/sound.o
                0x00000000089742c8                FillBuffer44100(int)
                0x00000000089753ac                menuMusicNextTrack
                0x0000000008974338                menuMusicPause
                0x0000000008974508                StandardSoundProcess
                0x0000000008974eb0                menuPlayZipSound
                0x0000000008974440                menuMusicStop
                0x000000000897449c                ramAvailableLineareMax()
                0x0000000008975580                menuMusicPlay
                0x0000000008974d64                ramAvailable
                0x0000000008975778                MenuSpecialMessageDisplay
                0x0000000008974210                fctMsgBoxSpeaker_Handle(WINDOW*, int)
                0x00000000089749e8                menuPlaySoundEx(CFILE*)
                0x00000000089756a4                fctMsgBoxSpeaker_Close(WINDOW*, int)
                0x00000000089753b8                menuMusicPrevTrack
                0x00000000089754dc                menuStartSound
                0x0000000008974654                gymThread(unsigned int, void*)
                0x0000000008975488                soundStandardVblank
                0x00000000089751e4                menuMusicBrowseTrack(int, int)
                0x0000000008974218                FillBufferArbitrary(int)
 .text          0x000000000897587c      0x2ec fileio.o
                0x0000000008975984                loadFromZipByName
                0x000000000897587c                getFileNameExtension
                0x0000000008975918                check_zip
                0x00000000089758a4                gzsize
 .text          0x0000000008975b68      0x684 state.o
                0x0000000008975b68                system_load_state
                0x0000000008975f78                system_save_state
 .text          0x00000000089761ec      0x358 loadrom.o
                0x00000000089761ec                load_rom
 .text          0x0000000008976544      0x158 unzip/ioapi.o
                0x00000000089765b4                fseek_file_func
                0x0000000008976624                fread_file_func
                0x00000000089765ac                fclose_file_func
                0x0000000008976550                fill_fopen_filefunc
                0x0000000008976608                ftell_file_func
                0x0000000008976544                ferror_file_func
                0x0000000008976610                fwrite_file_func
                0x0000000008976638                fopen_file_func
 .text          0x000000000897669c     0x1a70 unzip/unzip.o
                0x0000000008977ae0                unzOpenCurrentFilePassword
                0x0000000008977278                unzReadCurrentFile
                0x0000000008976f14                unzGoToFilePos
                0x0000000008977f84                unzLocateFile
                0x000000000897755c                unzOpenCurrentFile3
                0x0000000008976dd4                unzGoToFirstFile
                0x0000000008977af4                unzOpenCurrentFile
                0x0000000008977ad8                unzOpenCurrentFile2
                0x000000000897691c                unzGetGlobalInfo
                0x0000000008976fd8                unzGetLocalExtrafield
                0x0000000008976d90                unzGetCurrentFileInfo
                0x0000000008976edc                unzGetFilePos
                0x0000000008976e3c                unzGoToNextFile
                0x0000000008977170                unzCloseCurrentFile
                0x0000000008976fb0                unzeof
                0x000000000897709c                unzGetGlobalComment
                0x0000000008976f8c                unztell
                0x0000000008977b08                unzOpen2
                0x0000000008977ed8                unzStringFileNameCompare
                0x0000000008977220                unzClose
                0x0000000008977ed0                unzOpen
 .text          0x000000000897810c     0x1924 psp/gym/gym.o
                0x0000000008978ae8                CODEC_GYM::input_gym::~input_gym()
                0x00000000089791dc                CODEC_GYM::input_gym::open_file(CFILE*, SONGINFO*, unsigned int)
                0x0000000008978a28                CODEC_GYM::input_gym::reset()
                0x0000000008978604                CODEC_GYM::decomp_dac(unsigned char*, unsigned long, unsigned char*, unsigned long)
                0x0000000008978130                CODEC_GYM::input_gym::construct()
                0x000000000897810c                CODEC_GYM::input_gym::set_frequency(int)
                0x0000000008978c9c                CODEC_GYM::input_gym::load_ezpk_gym(void*)
                0x00000000089788f4                CODEC_GYM::input_gym::input_gym()
                0x000000000897815c                CODEC_GYM::input_gym::seek(float)
                0x0000000008978984                CODEC_GYM::input_gym::~input_gym()
                0x0000000008978b8c                CODEC_GYM::input_gym::load_zlib_gym(void*)
                0x00000000089787a0                CODEC_GYM::input_gym::get_samples_pcm(void**, int*, int*, int*, int*)
                0x0000000008978368                CODEC_GYM::input_gym::calc_gym_time_length(SONGINFO*)
                0x0000000008978590                CODEC_GYM::input_gym::destruct()
                0x0000000008979714                CODEC_GYM::input_gym::open(CFILE*, SONGINFO*, unsigned int)
                0x000000000897893c                CODEC_GYM::input_gym::input_gym()
 .text._ZN9CODEC_GYM9input_gym13test_filenameEPKcS2_
                0x0000000008979a30       0x28 psp/gym/gym.o
                0x0000000008979a30                CODEC_GYM::input_gym::test_filename(char const*, char const*)
 .text._ZN9CODEC_GYM9input_gym19is_our_content_typeEPKcS2_
                0x0000000008979a58       0x28 psp/gym/gym.o
                0x0000000008979a58                CODEC_GYM::input_gym::is_our_content_type(char const*, char const*)
 .text          0x0000000008979a80      0x740 psp/gym/gym_play.o
                0x0000000008979b10                Write_Sound_Stereo(short*, int)
                0x0000000008979fc0                Start_Play_GYM
                0x0000000008979a88                jump_gym_time_pos
                0x0000000008979be0                GYM_Next(unsigned char*, unsigned char*, unsigned int, unsigned int)
                0x0000000008979a80                Update_GYM_Dump
                0x000000000897a0a8                Play_GYM
 .text          0x000000000897a1c0     0x142c psp/gym/psg.o
                0x000000000897ac94                PSG_Init
                0x000000000897ab8c                PSG_Restore_State
                0x000000000897a1c0                PSG_Update_SIN
                0x000000000897a6bc                PSG_Special_Update
                0x000000000897a94c                PSG_Write
                0x000000000897a3d4                PSG_Update
                0x000000000897a668                PSG_Save_State
 .text          0x000000000897b5ec    0x11344 psp/gym/ym2612.o
                0x000000000897ca58                Update_Chan_Algo3
                0x000000000897b980                Env_NULL_Next
                0x000000000897b988                Env_Attack_Next
                0x000000000897b5ec                CALC_FINC_SL
                0x0000000008984b10                Update_Chan_Algo0_LFO_Int
                0x000000000897ba4c                Env_Release_Next
                0x00000000089884a8                YM2612_End
                0x000000000898bd8c                YM2612_Restore
                0x000000000897b6c8                KEY_ON
                0x000000000897cfa8                Update_Chan_Algo4
                0x0000000008983890                Update_Chan_Algo5_Int
                0x0000000008986038                Update_Chan_Algo3_LFO_Int
                0x0000000008981b28                Update_Chan_Algo0_Int
                0x0000000008980da0                Update_Chan_Algo6_LFO
                0x000000000898be1c                YM2612_Init
                0x000000000897f31c                Update_Chan_Algo2_LFO
                0x000000000897d538                Update_Chan_Algo5
                0x000000000898000c                Update_Chan_Algo4_LFO
                0x000000000897ba64                Update_Chan_Algo0
                0x000000000897e078                Update_Chan_Algo7
                0x00000000089826d8                Update_Chan_Algo2_Int
                0x000000000897c508                Update_Chan_Algo2
                0x0000000008987d4c                Update_Chan_Algo7_LFO_Int
                0x000000000897b7dc                CSM_Key_Control
                0x0000000008982100                Update_Chan_Algo1_Int
                0x000000000898a724                YM2612_Special_Update
                0x0000000008986e90                Update_Chan_Algo5_LFO_Int
                0x000000000898bb20                YM2612_Reset
                0x000000000897b9d0                Env_Substain_Next
                0x000000000898abc0                YM_SET
                0x0000000008986744                Update_Chan_Algo4_LFO_Int
                0x0000000008985220                Update_Chan_Algo1_LFO_Int
                0x0000000008982ca8                Update_Chan_Algo3_Int
                0x000000000897bfb8                Update_Chan_Algo1
                0x0000000008983ec4                Update_Chan_Algo6_Int
                0x000000000898592c                Update_Chan_Algo2_LFO_Int
                0x00000000089884b0                YM2612_Read
                0x000000000898b280                CHANNEL_SET
                0x0000000008981460                Update_Chan_Algo7_LFO
                0x00000000089884bc                YM2612_Save
                0x000000000897eca4                Update_Chan_Algo1_LFO
                0x000000000897f994                Update_Chan_Algo3_LFO
                0x0000000008983278                Update_Chan_Algo4_Int
                0x00000000089875f8                Update_Chan_Algo6_LFO_Int
                0x0000000008988b38                YM2612_Update
                0x00000000089887b4                CALC_FINC_CH
                0x000000000897e61c                Update_Chan_Algo0_LFO
                0x000000000897b9ac                Env_Decay_Next
                0x000000000897dae0                Update_Chan_Algo6
                0x00000000089844e8                Update_Chan_Algo7_Int
                0x00000000089806c4                Update_Chan_Algo5_LFO
                0x00000000089884f0                YM2612_DacAndTimers_Update
                0x000000000898a7cc                SLOT_SET
                0x000000000898b8dc                YM2612_Write
                0x000000000897b74c                KEY_OFF
 .text          0x000000000898c930     0x28e4 psp/gym/bzlib/blocksort.o
                0x000000000898d3a0                BZ2_blockSort
 .text          0x000000000898f214     0x3790 psp/gym/bzlib/bzlib.o
                0x000000000898f79c                BZ2_bzerror
                0x000000000898f50c                BZ2_bzDecompressInit
                0x0000000008991e24                BZ2_bzwrite
                0x0000000008992858                BZ2_bzclose
                0x00000000089910e8                BZ2_bzdopen
                0x000000000898f970                BZ2_bzDecompress
                0x0000000008992410                BZ2_bzBuffToBuffDecompress
                0x000000000898f658                BZ2_bzDecompressEnd
                0x00000000089919f8                BZ2_bzCompress
                0x000000000898f794                BZ2_bzflush
                0x000000000898f700                BZ2_bzReadGetUnused
                0x00000000089910fc                BZ2_bzopen
                0x0000000008992194                BZ2_bzWriteClose
                0x0000000008991e64                BZ2_bzWriteClose64
                0x00000000089921a4                BZ2_bzBuffToBuffCompress
                0x000000000898f788                BZ2_bzlibVersion
                0x000000000898f7e4                BZ2_bzWriteOpen
                0x0000000008990c48                BZ2_bzReadOpen
                0x000000000898f214                BZ2_bzCompressInit
                0x0000000008990900                BZ2_bz__AssertH__fail
                0x0000000008990964                BZ2_bzRead
                0x000000000898f464                BZ2_bzCompressEnd
                0x0000000008991c14                BZ2_bzWrite
                0x0000000008990be4                BZ2_bzread
                0x0000000008992738                BZ2_bzReadClose
                0x000000000898f604                BZ2_indexIntoF
 .text          0x00000000089929a4     0x4bb4 psp/gym/bzlib/compress.o
                0x00000000089929a4                BZ2_bsInitWrite
                0x00000000089929b0                BZ2_compressBlock
 .text          0x0000000008997558     0x2c3c psp/gym/bzlib/decompress.o
                0x0000000008997558                BZ2_decompress
 .text          0x000000000899a194      0x7e4 psp/gym/bzlib/huffman.o
                0x000000000899a378                BZ2_hbMakeCodeLengths
                0x000000000899a1f4                BZ2_hbCreateDecodeTables
                0x000000000899a194                BZ2_hbAssignCodes
 .text          0x000000000899a978     0x23f8 psp/vgm/mame_fm.o
                0x000000000899c5b0                YM2612Write
                0x000000000899b1d4                FMSetMode
                0x000000000899bbf8                YM2612UpdateOne
                0x000000000899c068                YM2612ResetChip
                0x000000000899ab6c                set_dr
                0x000000000899aaf8                set_ar_ksr
                0x000000000899c6c0                YM2612Read
                0x000000000899abcc                set_sl_rr
                0x000000000899acc0                calc_eg
                0x000000000899c708                YM2612TimerOver
                0x000000000899b140                OPN_CALC_FCOUNT
                0x000000000899aa6c                FM_KEYOFF
                0x000000000899aa38                FM_KEYON
                0x000000000899ac14                op_calc
                0x000000000899ac6c                op_calc1
                0x000000000899b098                CALC_FCSLOT
                0x000000000899c7b4                YM2612Init
                0x000000000899aa04                FM_IRQMASK_SET
                0x000000000899a978                FM_STATUS_SET
                0x000000000899ae10                FM_CALC_CH
                0x000000000899ab9c                set_sr
                0x000000000899b358                TimerAOver
                0x000000000899a9c0                FM_STATUS_RESET
                0x000000000899b3e0                TimerBOver
                0x000000000899b468                CSMKeyControll
                0x000000000899c77c                YM2612Shutdown
                0x000000000899aaa8                set_det_mul
                0x000000000899cbb4                YM2612_save_state
                0x000000000899aadc                set_tl
 .text          0x000000000899cd70     0x44b4 psp/vgm/emu2413.o
                0x00000000089a0894                EMU2413_OPLL_copyPatch
                0x000000000899ce8c                EMU2413_OPLL_dump2patch
                0x000000000899cfdc                EMU2413_OPLL_patch2dump
                0x000000000899e8f0                EMU2413_OPLL_calc
                0x000000000899eae0                EMU2413_OPLL_toggleMask
                0x00000000089a000c                EMU2413_OPLL_writeIO
                0x000000000899ded4                EMU2413_OPLL_forceRefresh
                0x000000000899fe5c                EMU2413_OPLL_reset
                0x00000000089a0550                EMU2413_OPLL_calc_stereo
                0x00000000089a08e4                EMU2413_OPLL_reset_patch
                0x000000000899eafc                EMU2413_OPLL_writeReg
                0x00000000089a0028                EMU2413_OPLL_set_pan
                0x00000000089a088c                EMU2413_OPLL_delete
                0x000000000899e040                EMU2413_OPLL_set_rate
                0x00000000089a0964                EMU2413_OPLL_setPatch
                0x000000000899eac8                EMU2413_OPLL_setMask
                0x000000000899e08c                EMU2413_OPLL_set_quality
                0x000000000899cfb4                EMU2413_OPLL_getDefaultPatch
                0x00000000089a0a40                EMU2413_OPLL_new
 .text          0x00000000089a1224      0x8d8 psp/vgm/sn76489.o
                0x00000000089a19e8                VGM_SN76489_SetVolType
                0x00000000089a1a34                VGM_SN76489_GetContext
                0x00000000089a1a98                VGM_SN76489_SetContext
                0x00000000089a148c                VGM_SN76489_GGStereoWrite
                0x00000000089a19c8                VGM_SN76489_GetVolType
                0x00000000089a1988                VGM_SN76489_GetMute
                0x00000000089a12dc                VGM_SN76489_Init
                0x00000000089a14ac                VGM_SN76489_Update
                0x00000000089a12ac                VGM_SN76489_Config
                0x00000000089a12a4                VGM_SN76489_Shutdown
                0x00000000089a1a08                VGM_SN76489_SetPanning
                0x00000000089a1354                VGM_SN76489_GetContextPtr
                0x00000000089a1370                VGM_SN76489_GetContextSize
                0x00000000089a1934                VGM_SN76489_UpdateOne
                0x00000000089a1224                VGM_SN76489_Reset
                0x00000000089a19a8                VGM_SN76489_SetMute
                0x00000000089a1378                VGM_SN76489_Write
 .text          0x00000000089a1afc     0x2a78 psp/vgm/mame_ym2151.o
                0x00000000089a1fac                YM2151WriteReg
                0x00000000089a2d60                advance_eg
                0x00000000089a2b48                chan7_calc
                0x00000000089a32b0                YM2151UpdateOne
                0x00000000089a1d5c                refresh_EG
                0x00000000089a1c34                set_connect
                0x00000000089a28b0                op_calc2151
                0x00000000089a359c                YM2151ResetChip
                0x00000000089a290c                op_calc1_2151
                0x00000000089a370c                YM2151Init
                0x00000000089a36d4                YM2151Shutdown
                0x00000000089a2964                chan_calc
                0x00000000089a2e98                YM2151SetIrqHandler
                0x00000000089a1afc                envelope_KONKOFF
                0x00000000089a2ec0                advance
                0x00000000089a2890                YM2151ReadStatus
 .text          0x00000000089a4574     0x2650 psp/vgm/In_vgm.o
                0x00000000089a45e4                eq_set(int, char*, int)
                0x00000000089a4950                getgd3string(char*, int, CFILE*)
                0x00000000089a45dc                quit()
                0x00000000089a4574                VGM_Init()
                0x00000000089a4b1c                VGM_DecodeThread(short*, int, int*)
                0x00000000089a45ec                VGM_SetFrequency(int)
                0x00000000089a48cc                random_stereo()
                0x00000000089a5fa4                VGM_play(char*, CFILE*, SONGINFO*, unsigned int)
                0x00000000089a461c                gaussrand()
 .text          0x00000000089a6bc4      0x2a8 psp/gz.o
                0x00000000089a6dc4                gzGetOrigName
                0x00000000089a6bc4                gzCreate
 .text          0x00000000089a6e6c      0x168 psp/VirtualGz.o
                0x00000000089a6ef8                vfsGzFileWrite
                0x00000000089a6f0c                vfsGzFileClose
                0x00000000089a6e6c                vfsGzFileInit
                0x00000000089a6ed4                vfsGzFilePutc
                0x00000000089a6f2c                vfsGzFileOpen
                0x00000000089a6eac                vfsGzFileEof
                0x00000000089a6ecc                vfsGzFileGets
                0x00000000089a6ec4                vfsGzFilePuts
                0x00000000089a6eb4                vfsGzFileTell
                0x00000000089a6ebc                vfsGzFileSeek
                0x00000000089a6edc                vfsGzFileGetc
                0x00000000089a6ee4                vfsGzFileRead
 .text          0x00000000089a6fd4     0x27d4 psp/deflate.o
                0x00000000089a7b30                deflate
                0x00000000089a7044                deflateTune
                0x00000000089a6fd4                deflateSetHeader
                0x00000000089a79a8                deflateSetDictionary
                0x00000000089a927c                deflateBound
                0x00000000089a978c                deflateInit_
                0x00000000089a9438                deflateInit2_
                0x00000000089a92d4                deflateReset
                0x00000000089a700c                deflatePrime
                0x00000000089a7488                deflateCopy
                0x00000000089a85f0                deflateParams
                0x00000000089a70a0                deflateEnd
 .text          0x00000000089a97a8     0x15a4 psp/gzio.o
                0x00000000089a9f1c                gzflush
                0x00000000089a97a8                gzungetc
                0x00000000089aa938                gzgetc
                0x00000000089aad44                gzopen
                0x00000000089a98a0                gzerror
                0x00000000089a9848                gzdirect
                0x00000000089aa96c                gzsetparams
                0x00000000089aa890                gztell
                0x00000000089a9870                gzclearerr
                0x00000000089aa69c                gzseek
                0x00000000089aa35c                gzread
                0x00000000089a9e08                gzputs
                0x00000000089aace8                gzdopen
                0x00000000089a9c78                gzclose
                0x00000000089a9cec                gzwrite
                0x00000000089a9e48                gzputc
                0x00000000089a9810                gzeof
                0x00000000089aa89c                gzgets
                0x00000000089a9e80                gzrewind
                0x00000000089a9f60                gzprintf
 .text          0x00000000089aad4c       0x38 error.o
                0x00000000089aad54                error_shutdown
                0x00000000089aad4c                error_init
                0x00000000089aad5c                error
 .text          0x00000000089aad84      0xbd0 c:/devkitPro/devkitPSP/psp/sdk/lib\libosl.a(oslib.o)
                0x00000000089ab034                oslVblankInterrupt
                0x00000000089ab02c                oslEndFrame
                0x00000000089ab14c                oslQuit
                0x00000000089aafc0                oslStandardPowerCallback
                0x00000000089ab654                oslSyncFrameEx
                0x00000000089aae78                oslFasterMemset
                0x00000000089aaf88                oslStandardExitCallback
                0x00000000089ab4fc                oslInit
                0x00000000089ab0e8                oslCallbackThread
                0x00000000089ab610                oslWaitVSync
                0x00000000089aadc4                oslSini
                0x00000000089ab088                oslSetupCallbacks
                0x00000000089ab608                oslFlushDataCache
                0x00000000089aafe0                oslVblankNextFrame
                0x00000000089aae04                oslGetNextPower2
                0x00000000089ab154                oslBenchmarkTestEx
                0x00000000089ab8b8                oslSetupFTrigo
                0x00000000089aad84                oslCosi
                0x00000000089aae58                oslAlignData
                0x00000000089ab254                oslMeanBenchmarkTestEx
                0x00000000089ab41c                oslSysBenchmarkDisplay
 .text          0x00000000089ab954      0xdec c:/devkitPro/devkitPSP/psp/sdk/lib\libosl.a(drawing.o)
                0x00000000089abd6c                oslSetSysDisplayListSize
                0x00000000089abbf0                oslSetAlphaTest
                0x00000000089abc34                oslSetBilinearFilter
                0x00000000089abce0                oslSyncDrawing
                0x00000000089abd2c                oslEndDrawing
                0x00000000089abbe0                oslDisableTransparentColor
                0x00000000089abe88                oslConvertColorEx
                0x00000000089abb84                oslDisableAlphaTest
                0x00000000089ac178                oslSetAlphaWrite
                0x00000000089ac35c                oslStartDrawing
                0x00000000089ac138                oslSetTransparentColor
                0x00000000089abb0c                oslEndGfx
                0x00000000089ac3bc                oslInitGfx
                0x00000000089ac1d8                oslSetAlpha2
                0x00000000089abbbc                oslSetDithering
                0x00000000089abdc0                oslDrawTile
                0x00000000089abb64                oslClearScreen
                0x00000000089abc4c                oslSwapBuffers
                0x00000000089ab954                oslConvertColor
                0x00000000089abb44                oslSetScreenClipping
 .text          0x00000000089ac740      0xcd4 c:/devkitPro/devkitPSP/psp/sdk/lib\libosl.a(image.o)
                0x00000000089acc14                oslClearImage
                0x00000000089acd88                oslCopyImageTo
                0x00000000089ad21c                oslCreateSwizzledImage
                0x00000000089ad27c                oslCreateImageCopy
                0x00000000089aca40                oslVerifyStripBlit
                0x00000000089acea0                oslFreeImageData
                0x00000000089acfec                oslCreateImage
                0x00000000089ac860                oslImageLocationIsSwizzled
                0x00000000089acf8c                oslDeleteImage
                0x00000000089ac884                oslCreateImageTileSize
                0x00000000089ac95c                oslSetTexture
                0x00000000089ad3cc                oslUncacheImage
                0x00000000089ad2dc                oslCreateImageTile
                0x00000000089acee0                oslAllocImageData
                0x00000000089ac740                oslSetImageFrame
 .text          0x00000000089ad414      0x324 c:/devkitPro/devkitPSP/psp/sdk/lib\libosl.a(palette.o)
                0x00000000089ad4ec                oslDeletePalette
                0x00000000089ad414                oslGetPaletteColor
                0x00000000089ad47c                oslUncachePalette
                0x00000000089ad580                oslCreatePaletteFrom
                0x00000000089ad5fc                oslCreatePaletteEx
 .text          0x00000000089ad738      0x5a0 c:/devkitPro/devkitPSP/psp/sdk/lib\libosl.a(shape.o)
                0x00000000089adb88                oslDrawGradientRect
                0x00000000089adabc                oslDrawFillRect
                0x00000000089ad738                oslBlendColors
                0x00000000089ad854                oslDrawLine
                0x00000000089ad920                oslDrawRect
 .text          0x00000000089adcd8      0x604 c:/devkitPro/devkitPSP/psp/sdk/lib\libosl.a(messagebox.o)
                0x00000000089adcd8                oslUIDrawButtonFrame
                0x00000000089ade54                oslMessageBox
 .text          0x00000000089ae2dc      0x24c c:/devkitPro/devkitPSP/psp/sdk/lib\libosl.a(keys.o)
                0x00000000089ae474                oslKbhit
                0x00000000089ae2dc                oslReadKeys
                0x00000000089ae4dc                oslWaitKey
                0x00000000089ae520                oslFlushKey
 .text          0x00000000089ae528       0xe8 c:/devkitPro/devkitPSP/psp/sdk/lib\libosl.a(vfpu.o)
                0x00000000089ae5d0                oslSin
                0x00000000089ae55c                vfpu_cosf
                0x00000000089ae528                vfpu_sinf
                0x00000000089ae590                oslCos
 .text          0x00000000089ae610     0x10e0 c:/devkitPro/devkitPSP/psp/sdk/lib\libosl.a(text.o)
                0x00000000089ae778                oslMoveMem
                0x00000000089aea20                oslDrawTextTile
                0x00000000089ae7ac                oslSetBkColor
                0x00000000089ae610                oslDrawChar1BitToImage
                0x00000000089af4a8                oslLoadFontFile
                0x00000000089aeb88                oslDrawString
                0x00000000089af038                oslDeleteFont
                0x00000000089af418                oslInitConsole
                0x00000000089ae7b8                oslGetStringWidth
                0x00000000089aeeb4                oslDrawTextBox
                0x00000000089ae7a0                oslSetTextColor
                0x00000000089ae7fc                oslGetTextBoxHeight
                0x00000000089af074                oslLoadFont
                0x00000000089aec58                oslDrawChar
                0x00000000089aed04                oslConsolePrint
                0x00000000089ae938                oslDrawTextTileBack
 .text          0x00000000089af6f0      0x594 c:/devkitPro/devkitPSP/psp/sdk/lib\libosl.a(vram_mgr.o)
                0x00000000089afc04                oslVramMgrInit
                0x00000000089af998                oslVramMgrAllocBlock
                0x00000000089af778                oslVramMgrFreeBlock
                0x00000000089af6f0                oslVramMgrSetParameters
 .text          0x00000000089afc84     0x19ec c:/devkitPro/devkitPSP/psp/sdk/lib\libosl.a(audio.o)
                0x00000000089b03a8                oslAudioCallback_PlaySound_WAV
                0x00000000089afe2c                fgetu32
                0x00000000089afd68                oslGetSoundChannel
                0x00000000089b0ff4                oslAudioCreateChannel
                0x00000000089b0f44                oslLoadSoundFile
                0x00000000089b0050                oslAudioCallback
                0x00000000089afeb0                get_fmt
                0x00000000089b0664                oslAudioVSync
                0x00000000089b0438                oslAudioCallback_StopSound_WAV
                0x00000000089b0514                oslDeleteSound
                0x00000000089b09ac                oslAudioCallback_AudioCallback_WAV
                0x00000000089b02dc                oslStopSound
                0x00000000089afc84                oslAudioChannelThreadCallback
                0x00000000089b1220                oslAudioRecreateChannel
                0x00000000089b0284                oslDeinitAudio
                0x00000000089b0334                oslPauseSound
                0x00000000089b0440                oslAudioCallback_ReactiveSound_WAV
                0x00000000089b0c58                oslLoadSoundFileWAV
                0x00000000089afc8c                oslAudioSetChannelCallback
                0x00000000089b0a4c                open_wave_src
                0x00000000089b1430                oslAudioOutBlocking
                0x00000000089afca4                oslAudioDeleteChannel
                0x00000000089aff7c                get_next_wav_sample
                0x00000000089b1410                oslSoundLoopFunc
                0x00000000089b0548                oslAudioReactiveSound
                0x00000000089b09cc                close_wave_src
                0x00000000089b00d8                oslAudioPowerCallback
                0x00000000089b09f8                oslAudioCallback_DeleteSound_WAV
                0x00000000089b071c                oslDecodeWav
                0x00000000089b1318                oslPlaySound
                0x00000000089afde4                fgetu16
                0x00000000089b0458                oslInitAudio
                0x00000000089afd9c                osl_fgetc
                0x00000000089b044c                oslAudioCallback_StandBy_WAV
 .text          0x00000000089b1670      0x758 c:/devkitPro/devkitPSP/psp/sdk/lib\libosl.a(bgm.o)
                0x00000000089b1670                oslStartAD
                0x00000000089b1724                oslAudioCallback_StandBy_BGM
                0x00000000089b172c                oslAudioCallback_DeleteSound_BGM
                0x00000000089b1688                oslAudioCallback_StopSound_BGM
                0x00000000089b1ab0                oslDecodeADMono
                0x00000000089b16cc                oslAudioCallback_PlaySound_BGM
                0x00000000089b1748                oslLoadSoundFileBGM
                0x00000000089b16f8                oslAudioCallback_ReactiveSound_BGM
                0x00000000089b1680                oslRepriseAD
                0x00000000089b1ccc                oslAudioCallback_AudioCallback_BGM
 .text          0x00000000089b1dc8      0xbe0 c:/devkitPro/devkitPSP/psp/sdk/lib\libosl.a(VirtualFile.o)
                0x00000000089b1e64                vfsMemPutc
                0x00000000089b237c                oslFindFileInVirtualFilenameList
                0x00000000089b2104                vfsMemSeek
                0x00000000089b2484                vfsMemOpen
                0x00000000089b26d4                vfsMemRead
                0x00000000089b1e08                vfsMemClose
                0x00000000089b2184                vfsMemTell
                0x00000000089b2744                vfsMemWrite
                0x00000000089b1e10                vfsMemGetc
                0x00000000089b281c                VirtualFileClose
                0x00000000089b27b8                vfsMemPuts
                0x00000000089b25fc                oslAddVirtualFileList
                0x00000000089b21b4                oslReadEntireFileToMemory
                0x00000000089b1dc8                VirtualFileRegisterSource
                0x00000000089b287c                VirtualFileOpen
                0x00000000089b219c                oslSetTempFileData
                0x00000000089b1ec8                vfsMemGets
                0x00000000089b2514                oslRemoveVirtualFileList
                0x00000000089b22cc                VirtualFileInit
                0x00000000089b218c                vfsMemEof
 .text          0x00000000089b29a8      0x178 c:/devkitPro/devkitPSP/psp/sdk/lib\libosl.a(vfsFile.o)
                0x00000000089b2ad0                vfsFileOpen
                0x00000000089b29a8                vfsFileEof
                0x00000000089b2a24                vfsFilePuts
                0x00000000089b2a2c                vfsFileGets
                0x00000000089b2a34                vfsFilePutc
                0x00000000089b2a9c                vfsFileWrite
                0x00000000089b29ec                vfsFileSeek
                0x00000000089b2a3c                vfsFileGetc
                0x00000000089b2a44                vfsFileRead
                0x00000000089b29dc                vfsFileTell
                0x00000000089b2ab0                vfsFileClose
                0x00000000089b29b4                oslInitVfsFile
 .text          0x00000000089b2b20      0x424 c:/devkitPro/devkitPSP/psp/sdk/lib\libosl.a(oslDrawImage.o)
                0x00000000089b2b20                oslDrawImage
 .text          0x00000000089b2f44       0xdc c:/devkitPro/devkitPSP/psp/sdk/lib\libosl.a(oslDrawImageSimple.o)
                0x00000000089b2f44                oslDrawImageSimple
 .text          0x00000000089b3020       0x68 c:/devkitPro/devkitPSP/psp/sdk/lib\libosl.a(oslLockImage.o)
                0x00000000089b3068                oslLockImage
                0x00000000089b3020                oslUnlockImage
 .text          0x00000000089b3088      0x35c c:/devkitPro/devkitPSP/psp/sdk/lib\libosl.a(oslSwizzleImage.o)
                0x00000000089b3088                oslSwizzleTexture
                0x00000000089b3140                oslGetSwizzledPixelAddr
                0x00000000089b32d0                oslSwizzleImageTo
                0x00000000089b3210                oslSwizzleImage
 .text          0x00000000089b33e4       0x54 c:/devkitPro/devkitPSP/psp/sdk/lib\libosl.a(oslSetDrawBuffer.o)
                0x00000000089b33e4                oslSetDrawBuffer
 .text          0x00000000089b3438      0x37c c:/devkitPro/devkitPSP/psp/sdk/lib\libosl.a(oslWriteImageFilePNG.o)
                0x00000000089b3438                oslWriteImageFilePNG
                0x00000000089b3758                oslPngWriteFn
 .text          0x00000000089b37b4      0x158 c:/devkitPro/devkitPSP/psp/sdk/lib\libosl.a(oslLoadImageFile.o)
                0x00000000089b37b4                oslLoadImageFile
 .text          0x00000000089b390c      0xa98 c:/devkitPro/devkitPSP/psp/sdk/lib\libosl.a(oslShowSplashScreen1.o)
                0x00000000089b390c                oslShowSplashScreen1
 .text          0x00000000089b43a4      0x568 c:/devkitPro/devkitPSP/psp/sdk/lib\libosl.a(oslShowSplashScreen2.o)
                0x00000000089b43a4                oslShowSplashScreen2
 .text          0x00000000089b490c       0x98 c:/devkitPro/devkitPSP/psp/sdk/lib\libosl.a(oslHandleLoadNoFailError.o)
                0x00000000089b490c                oslHandleLoadNoFailError
                0x00000000089b4968                osl_noFailDefaultCallback
 .text          0x00000000089b49a4       0xb4 c:/devkitPro/devkitPSP/psp/sdk/lib\libosl.a(oslMoveImageTo.o)
                0x00000000089b49a4                oslMoveImageTo
 .text          0x00000000089b4a58      0x7bc c:/devkitPro/devkitPSP/psp/sdk/lib\libosl.a(oslLoadImageFilePNG.o)
                0x00000000089b51b8                oslPngReadFn
                0x00000000089b4a58                oslPngFlushFn
                0x00000000089b4a60                oslLoadImageFilePNG
 .text          0x00000000089b5214      0x154 c:/devkitPro/devkitPSP/psp/sdk/lib\libosl.a(oslLoadImageFileJPG.o)
                0x00000000089b5214                oslLoadImageFileJPG
 .text          0x00000000089b5368      0x71c c:/devkitPro/devkitPSP/psp/sdk/lib\libosl.a(oslLoadImageFileGIF.o)
                0x00000000089b53b8                fnCopyLine
                0x00000000089b5368                fnGifReadFunc
                0x00000000089b5590                oslLoadImageFileGIF
                0x00000000089b5510                DGifGetLineByte
 .text          0x00000000089b5a84      0x26c c:/devkitPro/devkitPSP/psp/sdk/lib\libosl.a(oslConvertImageTo.o)
                0x00000000089b5a84                oslConvertImageTo
 .text          0x00000000089b5cf0       0xdc c:/devkitPro/devkitPSP/psp/sdk/lib\libosl.a(oslSetImagePixel.o)
                0x00000000089b5cf0                oslSetImagePixel
 .text          0x00000000089b5dcc       0xc8 c:/devkitPro/devkitPSP/psp/sdk/lib\libosl.a(oslGetImagePixel.o)
                0x00000000089b5dcc                oslGetImagePixel
 .text          0x00000000089b5e94     0x17f8 c:/devkitPro/devkitPSP/psp/sdk/lib\libosl.a(gba-jpeg-decode.o)
                0x00000000089b7058                JPEG_Decoder_ReadHeaders
                0x00000000089b72e8                JPEG_DecompressImage
                0x00000000089b66f8                JPEG_Decoder_ReadImage
                0x00000000089b61a8                JPEG_IDCT
                0x00000000089b7368                JPEG_Match
                0x00000000089b64bc                JPEG_HuffmanTable_Read
                0x00000000089b6edc                JPEG_FrameHeader_Read
                0x00000000089b6f9c                JPEG_ScanHeader_Read
                0x00000000089b66c0                JPEG_HuffmanTable_Skip
 .text          0x00000000089b768c     0x16dc c:/devkitPro/devkitPSP/psp/sdk/lib\libosl.a(dgif_lib.o)
                0x00000000089b8194                DGifGetExtensionNext
                0x00000000089b837c                DGifGetRecordType
                0x00000000089b87e8                DGifGetImageDesc
                0x00000000089b85ac                DGifGetScreenDesc
                0x00000000089b7f18                DGifGetPixel
                0x00000000089b7ff8                DGifGetLine
                0x00000000089b847c                DGifCloseFile
                0x00000000089b7de8                DGifGetLZCodes
                0x00000000089b82a4                DGifGetExtension
                0x00000000089b7ee0                DGifGetCode
                0x00000000089b8c08                DGifOpen
                0x00000000089b7cd0                DGifGetCodeNext
 .text          0x00000000089b8d68       0x10 c:/devkitPro/devkitPSP/psp/sdk/lib\libosl.a(gif_err.o)
                0x00000000089b8d68                GifLastError
 .text          0x00000000089b8d78      0x970 c:/devkitPro/devkitPSP/psp/sdk/lib\libosl.a(gifalloc.o)
                0x00000000089b8d78                BitSize
                0x00000000089b8da8                ApplyTranslation
                0x00000000089b8f94                FreeLastSavedImage
                0x00000000089b8dec                MakeExtension
                0x00000000089b93a0                UnionColorMap
                0x00000000089b8e88                FreeMapObject
                0x00000000089b9124                MakeMapObject
                0x00000000089b8df4                FreeExtension
                0x00000000089b9020                AddExtensionBlock
                0x00000000089b8ec8                FreeSavedImages
                0x00000000089b91d0                MakeSavedImage
 .text          0x00000000089b96e8      0xbcc c:/devkitPro/devkitPSP/psp/sdk/lib\libpng.a(png.o)
                0x00000000089ba1a8                png_get_header_ver
                0x00000000089b9878                png_zfree
                0x00000000089b97e8                png_zalloc
                0x00000000089ba194                png_get_libpng_ver
                0x00000000089b9738                png_sig_cmp
                0x00000000089b96e8                png_set_sig_bytes
                0x00000000089b9f84                png_info_destroy
                0x00000000089ba03c                png_get_io_ptr
                0x00000000089ba04c                png_convert_to_rfc1123
                0x00000000089ba1d0                png_handle_as_unknown
                0x00000000089ba288                png_access_version_number
                0x00000000089b9920                png_info_init_3
                0x00000000089ba180                png_get_copyright
                0x00000000089ba1bc                png_get_header_version
                0x00000000089ba280                png_reset_zstream
                0x00000000089b98b4                png_calculate_crc
                0x00000000089ba2ac                png_mmx_support
                0x00000000089b97c4                png_check_sig
                0x00000000089b9880                png_reset_crc
                0x00000000089b9990                png_create_info_struct
                0x00000000089b996c                png_info_init
                0x00000000089b9fdc                png_destroy_info_struct
                0x00000000089b9a34                png_free_data
                0x00000000089b99dc                png_data_freer
                0x00000000089ba044                png_init_io
                0x00000000089ba290                png_init_mmx_flags
 .text          0x00000000089ba2b4      0x460 c:/devkitPro/devkitPSP/psp/sdk/lib\libpng.a(pngerror.o)
                0x00000000089ba4f8                png_error
                0x00000000089ba3a8                png_warning
                0x00000000089ba4c0                png_chunk_warning
                0x00000000089ba6f0                png_set_strip_error_numbers
                0x00000000089ba6e8                png_get_error_ptr
                0x00000000089ba6a0                png_chunk_error
                0x00000000089ba6d8                png_set_error_fn
 .text          0x00000000089ba714      0x288 c:/devkitPro/devkitPSP/psp/sdk/lib\libpng.a(pngmem.o)
                0x00000000089ba80c                png_destroy_struct
                0x00000000089ba984                png_set_mem_fn
                0x00000000089ba8d0                png_free_default
                0x00000000089ba714                png_create_struct_2
                0x00000000089ba974                png_memset_check
                0x00000000089ba838                png_malloc
                0x00000000089ba7bc                png_create_struct
                0x00000000089ba7c8                png_destroy_struct_2
                0x00000000089ba964                png_memcpy_check
                0x00000000089ba8f0                png_free
                0x00000000089ba994                png_get_mem_ptr
                0x00000000089ba924                png_malloc_warn
                0x00000000089ba818                png_malloc_default
 .text          0x00000000089ba99c     0x2214 c:/devkitPro/devkitPSP/psp/sdk/lib\libpng.a(pngread.o)
                0x00000000089bc458                png_read_destroy
                0x00000000089bc8a8                png_set_read_status_fn
                0x00000000089bb0b4                png_read_init
                0x00000000089bacec                png_create_read_struct
                0x00000000089bacfc                png_read_init_3
                0x00000000089bc8b0                png_read_png
                0x00000000089bb770                png_start_read_image
                0x00000000089baf94                png_read_init_2
                0x00000000089bb0c8                png_read_info
                0x00000000089bc794                png_destroy_read_struct
                0x00000000089bb6fc                png_read_update_info
                0x00000000089bbea4                png_read_image
                0x00000000089bb790                png_read_row
                0x00000000089ba99c                png_create_read_struct_2
                0x00000000089bbd94                png_read_rows
                0x00000000089bbf54                png_read_end
 .text          0x00000000089bcbb0       0xe8 c:/devkitPro/devkitPSP/psp/sdk/lib\libpng.a(pngrio.o)
                0x00000000089bcc2c                png_set_read_fn
                0x00000000089bcbb0                png_read_data
                0x00000000089bcbcc                png_default_read_data
 .text          0x00000000089bcc98     0x6d80 c:/devkitPro/devkitPSP/psp/sdk/lib\libpng.a(pngrtran.o)
                0x00000000089c2d4c                png_do_read_filler
                0x00000000089bcf3c                png_set_dither
                0x00000000089bd9fc                png_set_gray_1_2_4_to_8
                0x00000000089bdcdc                png_set_read_user_transform_fn
                0x00000000089bcf28                png_set_strip_alpha
                0x00000000089bcf18                png_set_strip_16
                0x00000000089bdcf4                png_build_gamma_table
                0x00000000089c2980                png_do_unshift
                0x00000000089c27e0                png_do_dither
                0x00000000089c059c                png_do_rgb_to_gray
                0x00000000089bdbbc                png_set_rgb_to_gray
                0x00000000089bda1c                png_set_gray_to_rgb
                0x00000000089c0d60                png_do_gray_to_rgb
                0x00000000089bda2c                png_set_rgb_to_gray_fixed
                0x00000000089c330c                png_do_read_transformations
                0x00000000089bcc98                png_set_crc_action
                0x00000000089bd9ec                png_set_palette_to_rgb
                0x00000000089c31ac                png_do_read_swap_alpha
                0x00000000089c221c                png_do_gamma
                0x00000000089bd9dc                png_set_expand
                0x00000000089bfa28                png_read_transform_info
                0x00000000089c0084                png_do_expand
                0x00000000089be8fc                png_init_read_transformations
                0x00000000089bda0c                png_set_tRNS_to_alpha
                0x00000000089c30a4                png_do_read_invert_alpha
                0x00000000089c387c                png_build_grayscale_palette
                0x00000000089c390c                png_do_read_intrapixel
                0x00000000089c2760                png_do_chop
                0x00000000089bce00                png_set_background
                0x00000000089c2bd0                png_do_unpack
                0x00000000089bfd7c                png_do_expand_palette
                0x00000000089bd8c4                png_set_gamma
                0x00000000089c0f7c                png_do_background
 .text          0x00000000089c3a18     0x4a68 c:/devkitPro/devkitPSP/psp/sdk/lib\libpng.a(pngrutil.o)
                0x00000000089c5058                png_handle_sRGB
                0x00000000089c7ca4                png_read_finish_row
                0x00000000089c4130                png_handle_IHDR
                0x00000000089c3b38                png_crc_error
                0x00000000089c3ad8                png_get_uint_16
                0x00000000089c6f3c                png_check_chunk_name
                0x00000000089c3a44                png_get_uint_31
                0x00000000089c7a38                png_read_filter_row
                0x00000000089c805c                png_read_start_row
                0x00000000089c6018                png_handle_pHYs
                0x00000000089c3a18                png_get_uint_32
                0x00000000089c4550                png_handle_IEND
                0x00000000089c5e64                png_handle_hIST
                0x00000000089c45dc                png_handle_gAMA
                0x00000000089c696c                png_handle_tIME
                0x00000000089c59c4                png_handle_tRNS
                0x00000000089c42f8                png_handle_PLTE
                0x00000000089c6170                png_handle_oFFs
                0x00000000089c5bf8                png_handle_bKGD
                0x00000000089c66b4                png_handle_sCAL
                0x00000000089c52d8                png_handle_iCCP
                0x00000000089c6ccc                png_handle_zTXt
                0x00000000089c62c8                png_handle_pCAL
                0x00000000089c6ff4                png_handle_unknown
                0x00000000089c3af0                png_crc_read
                0x00000000089c47c0                png_handle_sBIT
                0x00000000089c71d4                png_combine_row
                0x00000000089c3bcc                png_crc_finish
                0x00000000089c55d8                png_handle_sPLT
                0x00000000089c4970                png_handle_cHRM
                0x00000000089c3cc4                png_decompress_chunk
                0x00000000089c75b0                png_do_read_interlace
                0x00000000089c3aac                png_get_int_32
                0x00000000089c6adc                png_handle_tEXt
 .text          0x00000000089c8480     0x2214 c:/devkitPro/devkitPSP/psp/sdk/lib\libpng.a(pngset.o)
                0x00000000089c98d0                png_set_sBIT
                0x00000000089c8a10                png_set_cHRM_fixed
                0x00000000089c8e04                png_set_gAMA
                0x00000000089ca334                png_set_unknown_chunk_location
                0x00000000089ca39c                png_permit_mng_features
                0x00000000089c9e14                png_set_text
                0x00000000089c8f78                png_set_gAMA_fixed
                0x00000000089c8480                png_set_bKGD
                0x00000000089c9544                png_set_oFFs
                0x00000000089c9154                png_set_IHDR
                0x00000000089ca3b4                png_set_keep_unknown_chunks
                0x00000000089c9eb4                png_set_tRNS
                0x00000000089ca658                png_set_asm_flags
                0x00000000089ca67c                png_set_mmx_thresholds
                0x00000000089c9574                png_set_pCAL
                0x00000000089ca168                png_set_unknown_chunks
                0x00000000089c9814                png_set_PLTE
                0x00000000089ca634                png_set_invalid
                0x00000000089c9fa0                png_set_sPLT
                0x00000000089c84cc                png_set_cHRM
                0x00000000089c97ac                png_set_sCAL
                0x00000000089c9a40                png_set_iCCP
                0x00000000089ca374                png_permit_empty_plte
                0x00000000089c9ba0                png_set_text_2
                0x00000000089ca5d4                png_set_compression_buffer_size
                0x00000000089ca560                png_set_read_user_chunk_fn
                0x00000000089c9040                png_set_hIST
                0x00000000089ca688                png_set_user_limits
                0x00000000089c9934                png_set_sRGB_gAMA_and_cHRM
                0x00000000089c97e4                png_set_pHYs
                0x00000000089c990c                png_set_sRGB
                0x00000000089c9e58                png_set_tIME
                0x00000000089ca56c                png_set_rows
 .text          0x00000000089ca694      0x7c0 c:/devkitPro/devkitPSP/psp/sdk/lib\libpng.a(pngtrans.o)
                0x00000000089ca7d4                png_set_add_alpha
                0x00000000089ca9cc                png_do_strip_filler
                0x00000000089ca760                png_set_filler
                0x00000000089ca73c                png_set_interlace_handling
                0x00000000089ca8f8                png_do_swap
                0x00000000089ca6c8                png_set_packing
                0x00000000089ca808                png_set_swap_alpha
                0x00000000089cae3c                png_set_user_transform_info
                0x00000000089ca694                png_set_bgr
                0x00000000089ca6a4                png_set_swap
                0x00000000089cad10                png_do_bgr
                0x00000000089ca6f0                png_set_packswap
                0x00000000089ca830                png_set_invert_mono
                0x00000000089ca948                png_do_packswap
                0x00000000089ca840                png_do_invert
                0x00000000089ca81c                png_set_invert_alpha
                0x00000000089cae4c                png_get_user_transform_ptr
                0x00000000089ca714                png_set_shift
 .text          0x00000000089cae54      0x140 c:/devkitPro/devkitPSP/psp/sdk/lib\libpng.a(pngwio.o)
                0x00000000089cae70                png_default_write_data
                0x00000000089caeec                png_default_flush
                0x00000000089caf08                png_set_write_fn
                0x00000000089caed0                png_flush
                0x00000000089cae54                png_write_data
 .text          0x00000000089caf94     0x20f0 c:/devkitPro/devkitPSP/psp/sdk/lib\libpng.a(pngwrite.o)
                0x00000000089ccee8                png_set_write_status_fn
                0x00000000089ccdb8                png_set_compression_level
                0x00000000089cbe48                png_create_write_struct_2
                0x00000000089cc254                png_write_init_2
                0x00000000089ccdcc                png_set_compression_mem_level
                0x00000000089cc740                png_write_rows
                0x00000000089ccdf4                png_set_compression_window_bits
                0x00000000089cc7bc                png_set_flush
                0x00000000089cc0a0                png_create_write_struct
                0x00000000089caf94                png_write_info_before_PLTE
                0x00000000089cc388                png_write_row
                0x00000000089cb2d8                png_write_info
                0x00000000089cc0b0                png_write_init_3
                0x00000000089cb74c                png_write_end
                0x00000000089ccf08                png_write_png
                0x00000000089ccb68                png_set_filter
                0x00000000089ccef0                png_set_write_user_transform_fn
                0x00000000089cc8c4                png_write_destroy
                0x00000000089cba44                png_convert_from_time_t
                0x00000000089cc698                png_write_image
                0x00000000089cce94                png_set_compression_method
                0x00000000089cba7c                png_set_filter_heuristics
                0x00000000089cc7cc                png_write_flush
                0x00000000089ccde0                png_set_compression_strategy
                0x00000000089cca78                png_destroy_write_struct
                0x00000000089cba08                png_convert_from_struct_tm
                0x00000000089cc374                png_write_init
 .text          0x00000000089cd084      0xa38 c:/devkitPro/devkitPSP/psp/sdk/lib\libpng.a(pngwtran.o)
                0x00000000089cd084                png_do_pack
                0x00000000089cd564                png_do_write_invert_alpha
                0x00000000089cd254                png_do_shift
                0x00000000089cd7a8                png_do_write_transformations
                0x00000000089cd658                png_do_write_swap_alpha
                0x00000000089cd9b0                png_do_write_intrapixel
 .text          0x00000000089cdabc     0x4188 c:/devkitPro/devkitPSP/psp/sdk/lib\libpng.a(pngwutil.o)
                0x00000000089ce964                png_write_gAMA_fixed
                0x00000000089cfb64                png_write_iCCP
                0x00000000089cf664                png_check_keyword
                0x00000000089ce9a0                png_write_sRGB
                0x00000000089d01e0                png_write_sCAL
                0x00000000089ce160                png_write_IHDR
                0x00000000089cfc9c                png_write_tEXt
                0x00000000089cdb0c                png_write_chunk_end
                0x00000000089ceb10                png_write_cHRM
                0x00000000089cdadc                png_save_int_32
                0x00000000089cf080                png_write_cHRM_fixed
                0x00000000089d0434                png_write_start_row
                0x00000000089cfd90                png_write_zTXt
                0x00000000089ce584                png_write_PLTE
                0x00000000089cf410                png_write_bKGD
                0x00000000089ce9fc                png_write_sBIT
                0x00000000089d0cb4                png_write_filtered_row
                0x00000000089cf944                png_write_sPLT
                0x00000000089d0dd0                png_write_find_filter
                0x00000000089ce6ec                png_write_IDAT
                0x00000000089cdafc                png_save_uint_16
                0x00000000089cdabc                png_save_uint_32
                0x00000000089cdb48                png_write_chunk_data
                0x00000000089d035c                png_write_tIME
                0x00000000089cdc28                png_write_chunk
                0x00000000089cdbb8                png_write_chunk_start
                0x00000000089cf59c                png_write_hIST
                0x00000000089d0688                png_write_finish_row
                0x00000000089ce8b4                png_write_IEND
                0x00000000089cff88                png_write_pCAL
                0x00000000089cfefc                png_write_oFFs
                0x00000000089ce8f0                png_write_gAMA
                0x00000000089d08fc                png_do_write_interlace
                0x00000000089d02d0                png_write_pHYs
                0x00000000089cdc7c                png_write_sig
                0x00000000089cf294                png_write_tRNS
 .text          0x00000000089d1c44      0xeec c:/devkitPro/devkitPSP/psp/sdk/lib\libpng.a(pngget.o)
                0x00000000089d28d0                png_get_sBIT
                0x00000000089d2218                png_get_cHRM_fixed
                0x00000000089d2044                png_get_bKGD
                0x00000000089d2468                png_get_hIST
                0x00000000089d1d48                png_get_interlace_type
                0x00000000089d1f8c                png_get_x_offset_pixels
                0x00000000089d2440                png_get_sPLT
                0x00000000089d1c68                png_get_rowbytes
                0x00000000089d23d4                png_get_iCCP
                0x00000000089d2a60                png_get_rgb_to_gray_status
                0x00000000089d1d28                png_get_filter_type
                0x00000000089d2968                png_get_tIME
                0x00000000089d1f4c                png_get_y_offset_microns
                0x00000000089d1cc8                png_get_image_height
                0x00000000089d270c                png_get_pCAL
                0x00000000089d1ca8                png_get_image_width
                0x00000000089d2ab0                png_get_asm_flagmask
                0x00000000089d1d88                png_get_x_pixels_per_meter
                0x00000000089d2390                png_get_sRGB
                0x00000000089d2004                png_get_channels
                0x00000000089d2b08                png_get_user_width_max
                0x00000000089d22d8                png_get_gAMA
                0x00000000089d1fc8                png_get_y_offset_pixels
                0x00000000089d2a88                png_get_compression_buffer_size
                0x00000000089d1c44                png_get_valid
                0x00000000089d1d68                png_get_compression_type
                0x00000000089d1f0c                png_get_x_offset_microns
                0x00000000089d1c88                png_get_rows
                0x00000000089d26a8                png_get_oFFs
                0x00000000089d1ce8                png_get_bit_depth
                0x00000000089d2b1c                png_get_user_height_max
                0x00000000089d1d08                png_get_color_type
                0x00000000089d2884                png_get_PLTE
                0x00000000089d1e08                png_get_pixels_per_meter
                0x00000000089d24ac                png_get_IHDR
                0x00000000089d234c                png_get_gAMA_fixed
                0x00000000089d2af4                png_get_mmx_rowbytes_threshold
                0x00000000089d2024                png_get_signature
                0x00000000089d2ae0                png_get_mmx_bitdepth_threshold
                0x00000000089d2908                png_get_text
                0x00000000089d27bc                png_get_sCAL
                0x00000000089d207c                png_get_cHRM
                0x00000000089d29a0                png_get_tRNS
                0x00000000089d2818                png_get_pHYs
                0x00000000089d2ac0                png_get_mmx_flagmask
                0x00000000089d2a9c                png_get_asm_flags
                0x00000000089d1dc8                png_get_y_pixels_per_meter
                0x00000000089d2a38                png_get_unknown_chunks
                0x00000000089d1e58                png_get_pixel_aspect_ratio
                0x00000000089d2a74                png_get_user_chunk_ptr
 .text          0x00000000089d2b30      0x480 c:/devkitPro/devkitPSP/psp/sdk/lib\libz.a(adler32.o)
                0x00000000089d2b30                adler32
                0x00000000089d2ed0                adler32_combine
 .text          0x00000000089d2fb0      0x1b0 c:/devkitPro/devkitPSP/psp/sdk/lib\libz.a(compress.o)
                0x00000000089d2fb0                compress2
                0x00000000089d307c                compressBound
                0x00000000089d3094                compress
 .text          0x00000000089d3160      0xaa4 c:/devkitPro/devkitPSP/psp/sdk/lib\libz.a(crc32.o)
                0x00000000089d316c                crc32
                0x00000000089d39ac                crc32_combine
                0x00000000089d3160                get_crc_table
 .text          0x00000000089d3c04     0x264c c:/devkitPro/devkitPSP/psp/sdk/lib\libz.a(inflate.o)
                0x00000000089d5ca0                inflateCopy
                0x00000000089d3ea0                inflate
                0x00000000089d5c5c                inflateSyncPoint
                0x00000000089d5c20                inflateGetHeader
                0x00000000089d5fe4                inflateInit_
                0x00000000089d3c7c                inflatePrime
                0x00000000089d3c04                inflateReset
                0x00000000089d5ff4                inflateSync
                0x00000000089d5ad4                inflateSetDictionary
                0x00000000089d5a54                inflateEnd
                0x00000000089d5e74                inflateInit2_
 .text          0x00000000089d6250      0x52c c:/devkitPro/devkitPSP/psp/sdk/lib\libz.a(inftrees.o)
                0x00000000089d6250                inflate_table
 .text          0x00000000089d677c     0x25d0 c:/devkitPro/devkitPSP/psp/sdk/lib\libz.a(trees.o)
                0x00000000089d844c                _tr_flush_block
                0x00000000089d7408                _tr_stored_block
                0x00000000089d7348                _tr_init
                0x00000000089d7244                _tr_tally
                0x00000000089d75ac                _tr_align
 .text          0x00000000089d8d4c       0xf0 c:/devkitPro/devkitPSP/psp/sdk/lib\libz.a(uncompr.o)
                0x00000000089d8d4c                uncompress
 .text          0x00000000089d8e3c       0x48 c:/devkitPro/devkitPSP/psp/sdk/lib\libz.a(zutil.o)
                0x00000000089d8e3c                zlibVersion
                0x00000000089d8e48                zlibCompileFlags
                0x00000000089d8e7c                zcfree
                0x00000000089d8e50                zError
                0x00000000089d8e70                zcalloc
 .text          0x00000000089d8e84      0x660 c:/devkitPro/devkitPSP/psp/sdk/lib\libz.a(inffast.o)
                0x00000000089d8e84                inflate_fast
 .text          0x00000000089d94e4       0x20 c:/devkitPro/devkitPSP/psp/sdk/lib\libpspgu.a(sceGuAlphaFunc.o)
                0x00000000089d94e4                sceGuAlphaFunc
 .text          0x00000000089d9504       0x3c c:/devkitPro/devkitPSP/psp/sdk/lib\libpspgu.a(sceGuAmbientColor.o)
                0x00000000089d9504                sceGuAmbientColor
 .text          0x00000000089d9540       0x68 c:/devkitPro/devkitPSP/psp/sdk/lib\libpspgu.a(sceGuBlendFunc.o)
                0x00000000089d9540                sceGuBlendFunc
 .text          0x00000000089d95a8      0x1f0 c:/devkitPro/devkitPSP/psp/sdk/lib\libpspgu.a(sceGuClear.o)
                0x00000000089d95a8                sceGuClear
 .text          0x00000000089d9798       0x28 c:/devkitPro/devkitPSP/psp/sdk/lib\libpspgu.a(sceGuClearColor.o)
                0x00000000089d9798                sceGuClearColor
 .text          0x00000000089d97c0       0x5c c:/devkitPro/devkitPSP/psp/sdk/lib\libpspgu.a(sceGuClutLoad.o)
                0x00000000089d97c0                sceGuClutLoad
 .text          0x00000000089d981c       0x20 c:/devkitPro/devkitPSP/psp/sdk/lib\libpspgu.a(sceGuClutMode.o)
                0x00000000089d981c                sceGuClutMode
 .text          0x00000000089d983c       0x58 c:/devkitPro/devkitPSP/psp/sdk/lib\libpspgu.a(sceGuColorFunc.o)
                0x00000000089d983c                sceGuColorFunc
 .text          0x00000000089d9894      0x290 c:/devkitPro/devkitPSP/psp/sdk/lib\libpspgu.a(sceGuDisable.o)
                0x00000000089d9894                sceGuDisable
 .text          0x00000000089d9b24      0x134 c:/devkitPro/devkitPSP/psp/sdk/lib\libpspgu.a(sceGuDispBuffer.o)
                0x00000000089d9b24                drawRegion
                0x00000000089d9b94                sceGuDispBuffer
 .text          0x00000000089d9c58       0x84 c:/devkitPro/devkitPSP/psp/sdk/lib\libpspgu.a(sceGuDisplay.o)
                0x00000000089d9c58                sceGuDisplay
 .text          0x00000000089d9cdc       0xc0 c:/devkitPro/devkitPSP/psp/sdk/lib\libpspgu.a(sceGuDrawArray.o)
                0x00000000089d9cdc                sceGuDrawArray
 .text          0x00000000089d9d9c       0xec c:/devkitPro/devkitPSP/psp/sdk/lib\libpspgu.a(sceGuDrawBuffer.o)
                0x00000000089d9d9c                sceGuDrawBuffer
 .text          0x00000000089d9e88      0x29c c:/devkitPro/devkitPSP/psp/sdk/lib\libpspgu.a(sceGuEnable.o)
                0x00000000089d9e88                sceGuEnable
 .text          0x00000000089da124      0x1d0 c:/devkitPro/devkitPSP/psp/sdk/lib\libpspgu.a(sceGuFinish.o)
                0x00000000089da20c                sceGuFinish
                0x00000000089da124                sceGuFinishId
 .text          0x00000000089da2f4       0x9c c:/devkitPro/devkitPSP/psp/sdk/lib\libpspgu.a(sceGuGetMemory.o)
                0x00000000089da2f4                sceGuGetMemory
 .text          0x00000000089da390       0xc4 c:/devkitPro/devkitPSP/psp/sdk/lib\libpspgu.a(sceGuInit.o)
                0x00000000089da390                sceGuInit
 .text          0x00000000089da454       0x9c c:/devkitPro/devkitPSP/psp/sdk/lib\libpspgu.a(sceGuScissor.o)
                0x00000000089da454                sceGuScissor
 .text          0x00000000089da4f0       0x20 c:/devkitPro/devkitPSP/psp/sdk/lib\libpspgu.a(sceGuShadeModel.o)
                0x00000000089da4f0                sceGuShadeModel
 .text          0x00000000089da510      0x168 c:/devkitPro/devkitPSP/psp/sdk/lib\libpspgu.a(sceGuStart.o)
                0x00000000089da510                sceGuStart
 .text          0x00000000089da678       0x20 c:/devkitPro/devkitPSP/psp/sdk/lib\libpspgu.a(sceGuStencilFunc.o)
                0x00000000089da678                sceGuStencilFunc
 .text          0x00000000089da698       0x18 c:/devkitPro/devkitPSP/psp/sdk/lib\libpspgu.a(sceGuStencilOp.o)
                0x00000000089da698                sceGuStencilOp
 .text          0x00000000089da6b0       0xc4 c:/devkitPro/devkitPSP/psp/sdk/lib\libpspgu.a(sceGuSwapBuffers.o)
                0x00000000089da6b0                guSwapBuffersBehaviour
                0x00000000089da6bc                guSwapBuffersCallback
                0x00000000089da6c8                sceGuSwapBuffers
 .text          0x00000000089da774       0x44 c:/devkitPro/devkitPSP/psp/sdk/lib\libpspgu.a(sceGuSync.o)
                0x00000000089da774                sceGuSync
 .text          0x00000000089da7b8       0x30 c:/devkitPro/devkitPSP/psp/sdk/lib\libpspgu.a(sceGuTerm.o)
                0x00000000089da7b8                sceGuTerm
 .text          0x00000000089da7e8       0x10 c:/devkitPro/devkitPSP/psp/sdk/lib\libpspgu.a(sceGuTexFilter.o)
                0x00000000089da7e8                sceGuTexFilter
 .text          0x00000000089da7f8       0x3c c:/devkitPro/devkitPSP/psp/sdk/lib\libpspgu.a(sceGuTexFunc.o)
                0x00000000089da7f8                sceGuTexFunc
 .text          0x00000000089da834       0xf0 c:/devkitPro/devkitPSP/psp/sdk/lib\libpspgu.a(sceGuTexImage.o)
                0x00000000089da860                sceGuTexImage
                0x00000000089da834                getExp
 .text          0x00000000089da924       0x68 c:/devkitPro/devkitPSP/psp/sdk/lib\libpspgu.a(sceGuTexMode.o)
                0x00000000089da924                sceGuTexMode
 .text          0x00000000089da98c       0x30 c:/devkitPro/devkitPSP/psp/sdk/lib\libpspgu.a(sceGuTexScale.o)
                0x00000000089da98c                sceGuTexScale
 .text          0x00000000089da9bc       0x10 c:/devkitPro/devkitPSP/psp/sdk/lib\libpspgu.a(sceGuTexWrap.o)
                0x00000000089da9bc                sceGuTexWrap
 .text          0x00000000089da9cc       0x90 c:/devkitPro/devkitPSP/psp/sdk/lib\libpspgu.a(sendCommand.o)
                0x00000000089da9cc                sendCommandi
                0x00000000089daa08                sendCommandiStall
                0x00000000089da9fc                sendCommandf
 .text          0x00000000089daa5c       0x1c c:/devkitPro/devkitPSP/psp/sdk/lib\libpspgu.a(callbackFin.o)
                0x00000000089daa5c                callbackFin
 .text          0x00000000089daa78       0x5c c:/devkitPro/devkitPSP/psp/sdk/lib\libpspgu.a(callbackSig.o)
                0x00000000089daa78                callbackSig
 .text          0x00000000089daad4       0xec c:/devkitPro/devkitPSP/psp/sdk/lib\libpspgu.a(resetValues.o)
                0x00000000089daad4                resetValues
 .text          0x00000000089dabc0        0xc c:/devkitPro/devkitPSP/psp/sdk/lib\libpspgu.a(sceGuColorMaterial.o)
                0x00000000089dabc0                sceGuColorMaterial
 .text          0x00000000089dabcc       0x10 c:/devkitPro/devkitPSP/psp/sdk/lib\libpspgu.a(sceGuPatchDivide.o)
                0x00000000089dabcc                sceGuPatchDivide
 .text          0x00000000089dabdc      0x11c c:/devkitPro/devkitPSP/psp/sdk/lib\libpspgu.a(sceGuSetDither.o)
                0x00000000089dabdc                sceGuSetDither
 .text          0x00000000089dacf8        0x8 c:/devkitPro/devkitPSP/psp/sdk/lib\libpspgu.a(sceGuSpecular.o)
                0x00000000089dacf8                sceGuSpecular
 .text          0x00000000089dad00        0xc c:/devkitPro/devkitPSP/psp/sdk/lib\libpspgu.a(sceGuTexFlush.o)
                0x00000000089dad00                sceGuTexFlush
 .text          0x00000000089dad0c       0x18 c:/devkitpro/devkitpsp/bin/../lib/gcc/psp/4.1.2/../../../../psp/lib\libstdc++.a(del_op.o)
                0x00000000089dad0c                operator delete(void*)
 .text          0x00000000089dad24        0x8 c:/devkitpro/devkitpsp/bin/../lib/gcc/psp/4.1.2/../../../../psp/lib\libstdc++.a(del_opv.o)
                0x00000000089dad24                operator delete[](void*)
 .text          0x00000000089dad2c      0xb50 c:/devkitpro/devkitpsp/bin/../lib/gcc/psp/4.1.2/../../../../psp/lib\libstdc++.a(eh_personality.o)
                0x00000000089db2a4                __cxa_call_unexpected
                0x00000000089db398                __gxx_personality_v0
 .text          0x00000000089db87c       0xa0 c:/devkitpro/devkitpsp/bin/../lib/gcc/psp/4.1.2/../../../../psp/lib\libstdc++.a(eh_terminate.o)
                0x00000000089db904                std::unexpected()
                0x00000000089db88c                std::set_unexpected(void (*)())
                0x00000000089db87c                std::set_terminate(void (*)())
                0x00000000089db8d4                std::terminate()
                0x00000000089db8ec                __cxxabiv1::__unexpected(void (*)())
                0x00000000089db89c                __cxxabiv1::__terminate(void (*)())
 .text          0x00000000089db91c      0x14c c:/devkitpro/devkitpsp/bin/../lib/gcc/psp/4.1.2/../../../../psp/lib\libstdc++.a(eh_throw.o)
                0x00000000089db91c                __cxa_rethrow
                0x00000000089db99c                __cxa_throw
 .text          0x00000000089dba68       0xb4 c:/devkitpro/devkitpsp/bin/../lib/gcc/psp/4.1.2/../../../../psp/lib\libstdc++.a(new_op.o)
                0x00000000089dba68                operator new(unsigned int)
 .text          0x00000000089dbb1c       0x38 c:/devkitpro/devkitpsp/bin/../lib/gcc/psp/4.1.2/../../../../psp/lib\libstdc++.a(new_opv.o)
                0x00000000089dbb1c                operator new[](unsigned int)
 .text          0x00000000089dbb54      0x1d8 c:/devkitpro/devkitpsp/bin/../lib/gcc/psp/4.1.2/../../../../psp/lib\libstdc++.a(vterminate.o)
                0x00000000089dbb54                __gnu_cxx::__verbose_terminate_handler()
 .text          0x00000000089dbd2c     0x554c c:/devkitpro/devkitpsp/bin/../lib/gcc/psp/4.1.2/../../../../psp/lib\libstdc++.a(cp-demangle.o)
                0x00000000089e116c                __cxa_demangle
 .text          0x00000000089e1278      0x138 c:/devkitpro/devkitpsp/bin/../lib/gcc/psp/4.1.2/../../../../psp/lib\libstdc++.a(eh_alloc.o)
                0x00000000089e1278                __cxa_free_exception
                0x00000000089e12d0                __cxa_allocate_exception
 .text          0x00000000089e13b0       0x50 c:/devkitpro/devkitpsp/bin/../lib/gcc/psp/4.1.2/../../../../psp/lib\libstdc++.a(eh_call.o)
                0x00000000089e13b0                __cxa_call_terminate
 .text          0x00000000089e1400      0x1a4 c:/devkitpro/devkitpsp/bin/../lib/gcc/psp/4.1.2/../../../../psp/lib\libstdc++.a(eh_catch.o)
                0x00000000089e1408                std::uncaught_exception()
                0x00000000089e1400                __cxa_get_exception_ptr
                0x00000000089e142c                __cxa_end_catch
                0x00000000089e14e4                __cxa_begin_catch
 .text          0x00000000089e15a4       0x94 c:/devkitpro/devkitpsp/bin/../lib/gcc/psp/4.1.2/../../../../psp/lib\libstdc++.a(eh_exception.o)
                0x00000000089e15d4                std::exception::~exception()
                0x00000000089e15a4                std::exception::what() const
                0x00000000089e1628                std::bad_exception::~bad_exception()
                0x00000000089e1618                std::bad_exception::~bad_exception()
                0x00000000089e15e4                std::bad_exception::~bad_exception()
                0x00000000089e15c4                std::exception::~exception()
                0x00000000089e15b4                std::exception::~exception()
 .text          0x00000000089e1638       0x18 c:/devkitpro/devkitpsp/bin/../lib/gcc/psp/4.1.2/../../../../psp/lib\libstdc++.a(eh_globals.o)
                0x00000000089e1638                __cxa_get_globals_fast
                0x00000000089e1644                __cxa_get_globals
 .text          0x00000000089e1650       0x30 c:/devkitpro/devkitpsp/bin/../lib/gcc/psp/4.1.2/../../../../psp/lib\libstdc++.a(eh_type.o)
                0x00000000089e1650                __cxa_current_exception_type
 .text          0x00000000089e1680       0x64 c:/devkitpro/devkitpsp/bin/../lib/gcc/psp/4.1.2/../../../../psp/lib\libstdc++.a(new_handler.o)
                0x00000000089e16d4                std::bad_alloc::~bad_alloc()
                0x00000000089e1690                std::bad_alloc::~bad_alloc()
                0x00000000089e1680                std::set_new_handler(void (*)())
                0x00000000089e16c4                std::bad_alloc::~bad_alloc()
 .text          0x00000000089e16e4      0xf74 c:/devkitpro/devkitpsp/bin/../lib/gcc/psp/4.1.2/../../../../psp/lib\libstdc++.a(tinfo.o)
                0x00000000089e16ec                std::type_info::__is_function_p() const
                0x00000000089e19a4                __cxxabiv1::__si_class_type_info::~__si_class_type_info()
                0x00000000089e1cf0                __cxxabiv1::__vmi_class_type_info::__do_upcast(__cxxabiv1::__class_type_info const*, void const*, __cxxabiv1::__class_type_info::__upcast_result&) const
                0x00000000089e19b4                std::bad_typeid::~bad_typeid()
                0x00000000089e1a08                std::bad_cast::~bad_cast()
                0x00000000089e17cc                __cxxabiv1::__class_type_info::__do_find_public_src(int, void const*, __cxxabiv1::__class_type_info const*, void const*) const
                0x00000000089e18ec                __cxxabiv1::__class_type_info::~__class_type_info()
                0x00000000089e1940                __cxxabiv1::__vmi_class_type_info::~__vmi_class_type_info()
                0x00000000089e16fc                __cxxabiv1::__class_type_info::__do_catch(std::type_info const*, void**, unsigned int) const
                0x00000000089e1a3c                std::bad_cast::~bad_cast()
                0x00000000089e17e0                __cxxabiv1::__class_type_info::__do_upcast(__cxxabiv1::__class_type_info const*, void const*, __cxxabiv1::__class_type_info::__upcast_result&) const
                0x00000000089e190c                __cxxabiv1::__vmi_class_type_info::~__vmi_class_type_info()
                0x00000000089e1b98                __cxxabiv1::__vmi_class_type_info::__do_find_public_src(int, void const*, __cxxabiv1::__class_type_info const*, void const*) const
                0x00000000089e1898                std::type_info::~type_info()
                0x00000000089e1888                std::type_info::~type_info()
                0x00000000089e16f4                std::type_info::__do_upcast(__cxxabiv1::__class_type_info const*, void**) const
                0x00000000089e1a70                __cxxabiv1::__class_type_info::__do_dyncast(int, __cxxabiv1::__class_type_info::__sub_kind, __cxxabiv1::__class_type_info const*, void const*, __cxxabiv1::__class_type_info const*, void const*, __cxxabiv1::__class_type_info::__dyncast_result&) const
                0x00000000089e1950                __cxxabiv1::__vmi_class_type_info::~__vmi_class_type_info()
                0x00000000089e1760                __cxxabiv1::__class_type_info::__do_upcast(__cxxabiv1::__class_type_info const*, void**) const
                0x00000000089e1ae4                __cxxabiv1::__si_class_type_info::__do_dyncast(int, __cxxabiv1::__class_type_info::__sub_kind, __cxxabiv1::__class_type_info const*, void const*, __cxxabiv1::__class_type_info const*, void const*, __cxxabiv1::__class_type_info::__dyncast_result&) const
                0x00000000089e18a8                std::type_info::~type_info()
                0x00000000089e1810                __cxxabiv1::__si_class_type_info::__do_upcast(__cxxabiv1::__class_type_info const*, void const*, __cxxabiv1::__class_type_info::__upcast_result&) const
                0x00000000089e1994                __cxxabiv1::__si_class_type_info::~__si_class_type_info()
                0x00000000089e16e4                std::type_info::__is_pointer_p() const
                0x00000000089e1a4c                std::bad_cast::~bad_cast()
                0x00000000089e1960                __cxxabiv1::__si_class_type_info::~__si_class_type_info()
                0x00000000089e18fc                __cxxabiv1::__class_type_info::~__class_type_info()
                0x00000000089e20f8                __cxxabiv1::__vmi_class_type_info::__do_dyncast(int, __cxxabiv1::__class_type_info::__sub_kind, __cxxabiv1::__class_type_info const*, void const*, __cxxabiv1::__class_type_info const*, void const*, __cxxabiv1::__class_type_info::__dyncast_result&) const
                0x00000000089e1ab0                __cxxabiv1::__si_class_type_info::__do_find_public_src(int, void const*, __cxxabiv1::__class_type_info const*, void const*) const
                0x00000000089e19e8                std::bad_typeid::~bad_typeid()
                0x00000000089e19f8                std::bad_typeid::~bad_typeid()
                0x00000000089e1fa8                __dynamic_cast
                0x00000000089e1a5c                std::type_info::__do_catch(std::type_info const*, void**, unsigned int) const
                0x00000000089e18b8                __cxxabiv1::__class_type_info::~__class_type_info()
 .text          0x00000000089e2658      0x26c c:/devkitpro/devkitpsp/bin/../lib/gcc/psp/4.1.2/../../../../psp/lib\libm.a(s_ceil.o)
                0x00000000089e2658                ceil
 .text          0x00000000089e28c4      0x254 c:/devkitpro/devkitpsp/bin/../lib/gcc/psp/4.1.2/../../../../psp/lib\libm.a(s_floor.o)
                0x00000000089e28c4                floor
 .text          0x00000000089e2b18      0x12c c:/devkitpro/devkitpsp/bin/../lib/gcc/psp/4.1.2/../../../../psp/lib\libm.a(s_sin.o)
                0x00000000089e2b18                sin
 .text          0x00000000089e2c44      0x1a4 c:/devkitpro/devkitpsp/bin/../lib/gcc/psp/4.1.2/../../../../psp/lib\libm.a(w_log.o)
                0x00000000089e2c44                log
 .text          0x00000000089e2de8      0x1a4 c:/devkitpro/devkitpsp/bin/../lib/gcc/psp/4.1.2/../../../../psp/lib\libm.a(w_log10.o)
                0x00000000089e2de8                log10
 .text          0x00000000089e2f8c      0x4d0 c:/devkitpro/devkitpsp/bin/../lib/gcc/psp/4.1.2/../../../../psp/lib\libm.a(w_pow.o)
                0x00000000089e2f8c                pow
 .text          0x00000000089e345c      0x164 c:/devkitpro/devkitpsp/bin/../lib/gcc/psp/4.1.2/../../../../psp/lib\libm.a(w_sqrt.o)
                0x00000000089e345c                sqrt
 .text          0x00000000089e35c0      0x720 c:/devkitpro/devkitpsp/bin/../lib/gcc/psp/4.1.2/../../../../psp/lib\libm.a(e_log.o)
                0x00000000089e35c0                __ieee754_log
 .text          0x00000000089e3ce0      0x23c c:/devkitpro/devkitpsp/bin/../lib/gcc/psp/4.1.2/../../../../psp/lib\libm.a(e_log10.o)
                0x00000000089e3ce0                __ieee754_log10
 .text          0x00000000089e3f1c     0x11b4 c:/devkitpro/devkitpsp/bin/../lib/gcc/psp/4.1.2/../../../../psp/lib\libm.a(e_pow.o)
                0x00000000089e3f1c                __ieee754_pow
 .text          0x00000000089e50d0      0x77c c:/devkitpro/devkitpsp/bin/../lib/gcc/psp/4.1.2/../../../../psp/lib\libm.a(e_rem_pio2.o)
                0x00000000089e50d0                __ieee754_rem_pio2
 .text          0x00000000089e584c      0x2f8 c:/devkitpro/devkitpsp/bin/../lib/gcc/psp/4.1.2/../../../../psp/lib\libm.a(e_sqrt.o)
                0x00000000089e584c                __ieee754_sqrt
 .text          0x00000000089e5b44      0x4d8 c:/devkitpro/devkitpsp/bin/../lib/gcc/psp/4.1.2/../../../../psp/lib\libm.a(k_cos.o)
                0x00000000089e5b44                __kernel_cos
 .text          0x00000000089e601c      0xda4 c:/devkitpro/devkitpsp/bin/../lib/gcc/psp/4.1.2/../../../../psp/lib\libm.a(k_rem_pio2.o)
                0x00000000089e601c                __kernel_rem_pio2
 .text          0x00000000089e6dc0      0x2e4 c:/devkitpro/devkitpsp/bin/../lib/gcc/psp/4.1.2/../../../../psp/lib\libm.a(k_sin.o)
                0x00000000089e6dc0                __kernel_sin
 .text          0x00000000089e70a4       0x18 c:/devkitpro/devkitpsp/bin/../lib/gcc/psp/4.1.2/../../../../psp/lib\libm.a(s_fabs.o)
                0x00000000089e70a4                fabs
 .text          0x00000000089e70bc       0x1c c:/devkitpro/devkitpsp/bin/../lib/gcc/psp/4.1.2/../../../../psp/lib\libm.a(s_finite.o)
                0x00000000089e70bc                finite
 .text          0x00000000089e70d8       0x34 c:/devkitpro/devkitpsp/bin/../lib/gcc/psp/4.1.2/../../../../psp/lib\libm.a(s_isnan.o)
                0x00000000089e70d8                isnan
 .text          0x00000000089e710c        0x8 c:/devkitpro/devkitpsp/bin/../lib/gcc/psp/4.1.2/../../../../psp/lib\libm.a(s_matherr.o)
                0x00000000089e710c                matherr
 .text          0x00000000089e7114      0x234 c:/devkitpro/devkitpsp/bin/../lib/gcc/psp/4.1.2/../../../../psp/lib\libm.a(s_rint.o)
                0x00000000089e7114                rint
 .text          0x00000000089e7348      0x1ec c:/devkitpro/devkitpsp/bin/../lib/gcc/psp/4.1.2/../../../../psp/lib\libm.a(s_scalbn.o)
                0x00000000089e7348                scalbn
 .text          0x00000000089e7534       0x24 c:/devkitpro/devkitpsp/bin/../lib/gcc/psp/4.1.2/../../../../psp/lib\libm.a(s_copysign.o)
                0x00000000089e7534                copysign
 .text          0x00000000089e7558       0x18 c:/devkitpro/devkitpsp/bin/../lib/gcc/psp/4.1.2/../../../../psp/lib\libc.a(abort.o)
                0x00000000089e7558                abort
 .text          0x00000000089e7570       0x14 c:/devkitpro/devkitpsp/bin/../lib/gcc/psp/4.1.2/../../../../psp/lib\libc.a(atexit.o)
                0x00000000089e7570                atexit
 .text          0x00000000089e7584        0x8 c:/devkitpro/devkitpsp/bin/../lib/gcc/psp/4.1.2/../../../../psp/lib\libc.a(atof.o)
                0x00000000089e7584                atof
 .text          0x00000000089e758c       0x18 c:/devkitpro/devkitpsp/bin/../lib/gcc/psp/4.1.2/../../../../psp/lib\libc.a(atoi.o)
                0x00000000089e758c                _atoi_r
                0x00000000089e7598                atoi
 .text          0x00000000089e75a4       0x18 c:/devkitpro/devkitpsp/bin/../lib/gcc/psp/4.1.2/../../../../psp/lib\libc.a(calloc.o)
                0x00000000089e75a4                calloc
 .text          0x00000000089e75bc       0xc4 c:/devkitpro/devkitpsp/bin/../lib/gcc/psp/4.1.2/../../../../psp/lib\libc.a(callocr.o)
                0x00000000089e75bc                _calloc_r
 .text          0x00000000089e7680        0xc c:/devkitpro/devkitpsp/bin/../lib/gcc/psp/4.1.2/../../../../psp/lib\libc.a(errno.o)
                0x00000000089e7680                __errno
 .text          0x00000000089e768c       0x3c c:/devkitpro/devkitpsp/bin/../lib/gcc/psp/4.1.2/../../../../psp/lib\libc.a(exit.o)
                0x00000000089e768c                exit
 .text          0x00000000089e76c8      0x148 c:/devkitpro/devkitpsp/bin/../lib/gcc/psp/4.1.2/../../../../psp/lib\libc.a(fclose.o)
                0x00000000089e76c8                _fclose_r
                0x00000000089e7800                fclose
 .text          0x00000000089e7810      0x12c c:/devkitpro/devkitpsp/bin/../lib/gcc/psp/4.1.2/../../../../psp/lib\libc.a(fdopen.o)
                0x00000000089e7810                _fdopen_r
                0x00000000089e7924                fdopen
 .text          0x00000000089e793c      0x120 c:/devkitpro/devkitpsp/bin/../lib/gcc/psp/4.1.2/../../../../psp/lib\libc.a(fflush.o)
                0x00000000089e793c                fflush
 .text          0x00000000089e7a5c       0x88 c:/devkitpro/devkitpsp/bin/../lib/gcc/psp/4.1.2/../../../../psp/lib\libc.a(fgetc.o)
                0x00000000089e7a5c                fgetc
 .text          0x00000000089e7ae4      0x1a0 c:/devkitpro/devkitpsp/bin/../lib/gcc/psp/4.1.2/../../../../psp/lib\libc.a(fgets.o)
                0x00000000089e7ae4                fgets
 .text          0x00000000089e7c84      0x2c8 c:/devkitpro/devkitpsp/bin/../lib/gcc/psp/4.1.2/../../../../psp/lib\libc.a(findfp.o)
                0x00000000089e7cfc                __sinit
                0x00000000089e7de4                __sfmoreglue
                0x00000000089e7dd8                _cleanup
                0x00000000089e7dcc                _cleanup_r
                0x00000000089e7db8                __fp_lock_all
                0x00000000089e7cdc                __sfp_lock_acquire
                0x00000000089e7e54                __sfp
                0x00000000089e7cf4                __sinit_lock_release
                0x00000000089e7da4                __fp_unlock_all
                0x00000000089e7ce4                __sfp_lock_release
                0x00000000089e7cec                __sinit_lock_acquire
 .text          0x00000000089e7f4c       0xa0 c:/devkitpro/devkitpsp/bin/../lib/gcc/psp/4.1.2/../../../../psp/lib\libc.a(flags.o)
                0x00000000089e7f4c                __sflags
 .text          0x00000000089e7fec      0x11c c:/devkitpro/devkitpsp/bin/../lib/gcc/psp/4.1.2/../../../../psp/lib\libc.a(fopen.o)
                0x00000000089e80f0                fopen
                0x00000000089e7fec                _fopen_r
 .text          0x00000000089e8108       0x54 c:/devkitpro/devkitpsp/bin/../lib/gcc/psp/4.1.2/../../../../psp/lib\libc.a(fprintf.o)
                0x00000000089e8108                fprintf
 .text          0x00000000089e815c       0xf8 c:/devkitpro/devkitpsp/bin/../lib/gcc/psp/4.1.2/../../../../psp/lib\libc.a(fputc.o)
                0x00000000089e815c                fputc
 .text          0x00000000089e8254       0x84 c:/devkitpro/devkitpsp/bin/../lib/gcc/psp/4.1.2/../../../../psp/lib\libc.a(fputs.o)
                0x00000000089e8254                fputs
 .text          0x00000000089e82d8      0x288 c:/devkitpro/devkitpsp/bin/../lib/gcc/psp/4.1.2/../../../../psp/lib\libc.a(fread.o)
                0x00000000089e82d8                fread
 .text          0x00000000089e8560      0x434 c:/devkitpro/devkitpsp/bin/../lib/gcc/psp/4.1.2/../../../../psp/lib\libc.a(freer.o)
                0x00000000089e868c                _free_r
                0x00000000089e8560                _malloc_trim_r
 .text          0x00000000089e8994      0x4b4 c:/devkitpro/devkitpsp/bin/../lib/gcc/psp/4.1.2/../../../../psp/lib\libc.a(fseek.o)
                0x00000000089e8e28                fseek
                0x00000000089e8994                _fseek_r
 .text          0x00000000089e8e48       0x74 c:/devkitpro/devkitpsp/bin/../lib/gcc/psp/4.1.2/../../../../psp/lib\libc.a(fstatr.o)
                0x00000000089e8e48                _fstat_r
 .text          0x00000000089e8ebc      0x110 c:/devkitpro/devkitpsp/bin/../lib/gcc/psp/4.1.2/../../../../psp/lib\libc.a(ftell.o)
                0x00000000089e8fbc                ftell
                0x00000000089e8ebc                _ftell_r
 .text          0x00000000089e8fcc      0x44c c:/devkitpro/devkitpsp/bin/../lib/gcc/psp/4.1.2/../../../../psp/lib\libc.a(fvwrite.o)
                0x00000000089e8fcc                __sfvwrite
 .text          0x00000000089e9418      0x1f4 c:/devkitpro/devkitpsp/bin/../lib/gcc/psp/4.1.2/../../../../psp/lib\libc.a(fwalk.o)
                0x00000000089e951c                _fwalk
                0x00000000089e9418                _fwalk_reent
 .text          0x00000000089e960c       0xb4 c:/devkitpro/devkitpsp/bin/../lib/gcc/psp/4.1.2/../../../../psp/lib\libc.a(fwrite.o)
                0x00000000089e960c                fwrite
 .text          0x00000000089e96c0       0x10 c:/devkitpro/devkitpsp/bin/../lib/gcc/psp/4.1.2/../../../../psp/lib\libc.a(gmtime.o)
                0x00000000089e96c0                gmtime
 .text          0x00000000089e96d0        0x8 c:/devkitpro/devkitpsp/bin/../lib/gcc/psp/4.1.2/../../../../psp/lib\libc.a(gmtime_r.o)
                0x00000000089e96d0                gmtime_r
 .text          0x00000000089e96d8       0x94 c:/devkitpro/devkitpsp/bin/../lib/gcc/psp/4.1.2/../../../../psp/lib\libc.a(iprintf.o)
                0x00000000089e96d8                _iprintf_r
                0x00000000089e971c                iprintf
 .text          0x00000000089e976c       0x10 c:/devkitpro/devkitpsp/bin/../lib/gcc/psp/4.1.2/../../../../psp/lib\libc.a(lcltime.o)
                0x00000000089e976c                localtime
 .text          0x00000000089e977c        0x8 c:/devkitpro/devkitpsp/bin/../lib/gcc/psp/4.1.2/../../../../psp/lib\libc.a(lcltime_r.o)
                0x00000000089e977c                localtime_r
 .text          0x00000000089e9784      0x16c c:/devkitpro/devkitpsp/bin/../lib/gcc/psp/4.1.2/../../../../psp/lib\libc.a(makebuf.o)
                0x00000000089e9784                __smakebuf
 .text          0x00000000089e98f0       0x18 c:/devkitpro/devkitpsp/bin/../lib/gcc/psp/4.1.2/../../../../psp/lib\libc.a(malign.o)
                0x00000000089e98f0                memalign
 .text          0x00000000089e9908      0x1b8 c:/devkitpro/devkitpsp/bin/../lib/gcc/psp/4.1.2/../../../../psp/lib\libc.a(malignr.o)
                0x00000000089e9908                _memalign_r
 .text          0x00000000089e9ac0       0x20 c:/devkitpro/devkitpsp/bin/../lib/gcc/psp/4.1.2/../../../../psp/lib\libc.a(malloc.o)
                0x00000000089e9ad0                malloc
                0x00000000089e9ac0                free
 .text          0x00000000089e9ae0      0x810 c:/devkitpro/devkitpsp/bin/../lib/gcc/psp/4.1.2/../../../../psp/lib\libc.a(mallocr.o)
                0x00000000089e9ae0                _malloc_r
 .text          0x00000000089ea2f0       0xf0 c:/devkitpro/devkitpsp/bin/../lib/gcc/psp/4.1.2/../../../../psp/lib\libc.a(memchr.o)
                0x00000000089ea2f0                memchr
 .text          0x00000000089ea3e0       0x88 c:/devkitpro/devkitpsp/bin/../lib/gcc/psp/4.1.2/../../../../psp/lib\libc.a(memcmp.o)
                0x00000000089ea3e0                memcmp
 .text          0x00000000089ea468      0x158 c:/devkitpro/devkitpsp/bin/../lib/gcc/psp/4.1.2/../../../../psp/lib\libc.a(memcpy.o)
                0x00000000089ea468                memcpy
 .text          0x00000000089ea5c0      0x100 c:/devkitpro/devkitpsp/bin/../lib/gcc/psp/4.1.2/../../../../psp/lib\libc.a(memmove.o)
                0x00000000089ea5c0                memmove
 .text          0x00000000089ea6c0       0xe4 c:/devkitpro/devkitpsp/bin/../lib/gcc/psp/4.1.2/../../../../psp/lib\libc.a(memset.o)
                0x00000000089ea6c0                memset
 .text          0x00000000089ea7a4      0x800 c:/devkitpro/devkitpsp/bin/../lib/gcc/psp/4.1.2/../../../../psp/lib\libc.a(mktm_r.o)
                0x00000000089ea7a4                __tzcalc_limits
                0x00000000089eaa20                _mktm_r
 .text          0x00000000089eafa4       0x64 c:/devkitpro/devkitpsp/bin/../lib/gcc/psp/4.1.2/../../../../psp/lib\libc.a(mlock.o)
                0x00000000089eafa4                __malloc_unlock
                0x00000000089eafcc                __malloc_lock
 .text          0x00000000089eb008       0x78 c:/devkitpro/devkitpsp/bin/../lib/gcc/psp/4.1.2/../../../../psp/lib\libc.a(openr.o)
                0x00000000089eb008                _open_r
 .text          0x00000000089eb080       0x8c c:/devkitpro/devkitpsp/bin/../lib/gcc/psp/4.1.2/../../../../psp/lib\libc.a(rand.o)
                0x00000000089eb094                rand
                0x00000000089eb080                srand
 .text          0x00000000089eb10c       0x18 c:/devkitpro/devkitpsp/bin/../lib/gcc/psp/4.1.2/../../../../psp/lib\libc.a(realloc.o)
                0x00000000089eb10c                realloc
 .text          0x00000000089eb124      0x668 c:/devkitpro/devkitpsp/bin/../lib/gcc/psp/4.1.2/../../../../psp/lib\libc.a(reallocr.o)
                0x00000000089eb124                _realloc_r
 .text          0x00000000089eb78c      0x224 c:/devkitpro/devkitpsp/bin/../lib/gcc/psp/4.1.2/../../../../psp/lib\libc.a(reent.o)
                0x00000000089eb854                cleanup_glue
                0x00000000089eb89c                _reclaim_reent
                0x00000000089eb78c                _wrapup_reent
 .text          0x00000000089eb9b0      0x1ec c:/devkitpro/devkitpsp/bin/../lib/gcc/psp/4.1.2/../../../../psp/lib\libc.a(refill.o)
                0x00000000089eb9d4                __srefill
 .text          0x00000000089ebb9c       0x4c c:/devkitpro/devkitpsp/bin/../lib/gcc/psp/4.1.2/../../../../psp/lib\libc.a(rget.o)
                0x00000000089ebb9c                __srget
 .text          0x00000000089ebbe8       0x70 c:/devkitpro/devkitpsp/bin/../lib/gcc/psp/4.1.2/../../../../psp/lib\libc.a(sbrkr.o)
                0x00000000089ebbe8                _sbrk_r
 .text          0x00000000089ebc58       0xdc c:/devkitpro/devkitpsp/bin/../lib/gcc/psp/4.1.2/../../../../psp/lib\libc.a(setjmp.o)
                0x00000000089ebcc0                longjmp
                0x00000000089ebc58                setjmp
 .text          0x00000000089ebd34      0x2f4 c:/devkitpro/devkitpsp/bin/../lib/gcc/psp/4.1.2/../../../../psp/lib\libc.a(signal.o)
                0x00000000089ebf70                _signal_r
                0x00000000089ebe78                _raise_r
                0x00000000089ebda8                __sigtramp_r
                0x00000000089ec010                signal
                0x00000000089ebd9c                _init_signal
                0x00000000089ebd34                _init_signal_r
                0x00000000089ebe68                __sigtramp
                0x00000000089ebf60                raise
 .text          0x00000000089ec028       0x7c c:/devkitpro/devkitpsp/bin/../lib/gcc/psp/4.1.2/../../../../psp/lib\libc.a(signalr.o)
                0x00000000089ec030                _kill_r
                0x00000000089ec028                _getpid_r
 .text          0x00000000089ec0a4       0x54 c:/devkitpro/devkitpsp/bin/../lib/gcc/psp/4.1.2/../../../../psp/lib\libc.a(sprintf.o)
                0x00000000089ec0a4                sprintf
 .text          0x00000000089ec0f8      0x1b8 c:/devkitpro/devkitpsp/bin/../lib/gcc/psp/4.1.2/../../../../psp/lib\libc.a(stdio.o)
                0x00000000089ec108                __sseek
                0x00000000089ec23c                __sread
                0x00000000089ec0f8                __sclose
                0x00000000089ec180                __swrite
 .text          0x00000000089ec2b0       0x94 c:/devkitpro/devkitpsp/bin/../lib/gcc/psp/4.1.2/../../../../psp/lib\libc.a(strcasecmp.o)
                0x00000000089ec2b0                strcasecmp
 .text          0x00000000089ec344       0xa4 c:/devkitpro/devkitpsp/bin/../lib/gcc/psp/4.1.2/../../../../psp/lib\libc.a(strcat.o)
                0x00000000089ec344                strcat
 .text          0x00000000089ec3e8       0xf4 c:/devkitpro/devkitpsp/bin/../lib/gcc/psp/4.1.2/../../../../psp/lib\libc.a(strchr.o)
                0x00000000089ec3e8                strchr
 .text          0x00000000089ec4dc       0x6c c:/devkitpro/devkitpsp/bin/../lib/gcc/psp/4.1.2/../../../../psp/lib\libc.a(strcmp.o)
                0x00000000089ec4dc                strcmp
 .text          0x00000000089ec548       0x8c c:/devkitpro/devkitpsp/bin/../lib/gcc/psp/4.1.2/../../../../psp/lib\libc.a(strcpy.o)
                0x00000000089ec548                strcpy
 .text          0x00000000089ec5d4      0x458 c:/devkitpro/devkitpsp/bin/../lib/gcc/psp/4.1.2/../../../../psp/lib\libc.a(strerror.o)
                0x00000000089ec5d4                strerror
 .text          0x00000000089eca2c       0x18 c:/devkitpro/devkitpsp/bin/../lib/gcc/psp/4.1.2/../../../../psp/lib\libc.a(strlen.o)
                0x00000000089eca2c                strlen
 .text          0x00000000089eca44      0x12c c:/devkitpro/devkitpsp/bin/../lib/gcc/psp/4.1.2/../../../../psp/lib\libc.a(strncmp.o)
                0x00000000089eca44                strncmp
 .text          0x00000000089ecb70      0x1a4 c:/devkitpro/devkitpsp/bin/../lib/gcc/psp/4.1.2/../../../../psp/lib\libc.a(strncpy.o)
                0x00000000089ecb70                strncpy
 .text          0x00000000089ecd14       0x68 c:/devkitpro/devkitpsp/bin/../lib/gcc/psp/4.1.2/../../../../psp/lib\libc.a(strrchr.o)
                0x00000000089ecd14                strrchr
 .text          0x00000000089ecd7c     0x1374 c:/devkitpro/devkitpsp/bin/../lib/gcc/psp/4.1.2/../../../../psp/lib\libc.a(strtod.o)
                0x00000000089ecd7c                _strtod_r
                0x00000000089ee0d8                strtod
                0x00000000089ee060                strtof
 .text          0x00000000089ee0f0      0x21c c:/devkitpro/devkitpsp/bin/../lib/gcc/psp/4.1.2/../../../../psp/lib\libc.a(strtol.o)
                0x00000000089ee2ec                strtol
                0x00000000089ee0f0                _strtol_r
 .text          0x00000000089ee30c        0x8 c:/devkitpro/devkitpsp/bin/../lib/gcc/psp/4.1.2/../../../../psp/lib\libc.a(sysgettod.o)
                0x00000000089ee30c                gettimeofday
 .text          0x00000000089ee314       0x20 c:/devkitpro/devkitpsp/bin/../lib/gcc/psp/4.1.2/../../../../psp/lib\libc.a(time.o)
                0x00000000089ee314                time
 .text          0x00000000089ee334       0x10 c:/devkitpro/devkitpsp/bin/../lib/gcc/psp/4.1.2/../../../../psp/lib\libc.a(tzlock.o)
                0x00000000089ee33c                __tz_unlock
                0x00000000089ee334                __tz_lock
 .text          0x00000000089ee344        0x8 c:/devkitpro/devkitpsp/bin/../lib/gcc/psp/4.1.2/../../../../psp/lib\libc.a(u_strerr.o)
                0x00000000089ee344                _user_strerror
 .text          0x00000000089ee34c      0x2e4 c:/devkitpro/devkitpsp/bin/../lib/gcc/psp/4.1.2/../../../../psp/lib\libc.a(ungetc.o)
                0x00000000089ee618                ungetc
                0x00000000089ee34c                __submore
                0x00000000089ee470                _ungetc_r
 .text          0x00000000089ee630     0x1190 c:/devkitpro/devkitpsp/bin/../lib/gcc/psp/4.1.2/../../../../psp/lib\libc.a(vfiprintf.o)
                0x00000000089ef7a0                vfiprintf
                0x00000000089ee68c                _vfiprintf_r
 .text          0x00000000089ef7c0       0x3c c:/devkitpro/devkitpsp/bin/../lib/gcc/psp/4.1.2/../../../../psp/lib\libc.a(vsnprintf.o)
                0x00000000089ef7c0                vsnprintf
 .text          0x00000000089ef7fc     0x14d0 c:/devkitpro/devkitpsp/bin/../lib/gcc/psp/4.1.2/../../../../psp/lib\libc.a(vxprintf.o)
                0x00000000089ef8a4                vxprintf
 .text          0x00000000089f0ccc      0x128 c:/devkitpro/devkitpsp/bin/../lib/gcc/psp/4.1.2/../../../../psp/lib\libc.a(wbuf.o)
                0x00000000089f0ccc                __swbuf
 .text          0x00000000089f0df4       0x94 c:/devkitpro/devkitpsp/bin/../lib/gcc/psp/4.1.2/../../../../psp/lib\libc.a(wcrtomb.o)
                0x00000000089f0df4                _wcrtomb_r
                0x00000000089f0e68                wcrtomb
 .text          0x00000000089f0e88      0x194 c:/devkitpro/devkitpsp/bin/../lib/gcc/psp/4.1.2/../../../../psp/lib\libc.a(wcsrtombs.o)
                0x00000000089f0e88                _wcsrtombs_r
                0x00000000089f0ff4                wcsrtombs
 .text          0x00000000089f101c      0x458 c:/devkitpro/devkitpsp/bin/../lib/gcc/psp/4.1.2/../../../../psp/lib\libc.a(wctomb_r.o)
                0x00000000089f101c                _wctomb_r
 .text          0x00000000089f1474       0x78 c:/devkitpro/devkitpsp/bin/../lib/gcc/psp/4.1.2/../../../../psp/lib\libc.a(writer.o)
                0x00000000089f1474                _write_r
 .text          0x00000000089f14ec      0x13c c:/devkitpro/devkitpsp/bin/../lib/gcc/psp/4.1.2/../../../../psp/lib\libc.a(wsetup.o)
                0x00000000089f14ec                __swsetup
 .text          0x00000000089f1628       0x7c c:/devkitpro/devkitpsp/bin/../lib/gcc/psp/4.1.2/../../../../psp/lib\libc.a(_Exit.o)
                0x00000000089f1628                __psp_libc_init
                0x00000000089f1648                _exit
 .text          0x00000000089f16a4      0x118 c:/devkitpro/devkitpsp/bin/../lib/gcc/psp/4.1.2/../../../../psp/lib\libc.a(__atexit.o)
                0x00000000089f16a4                __register_exitproc
 .text          0x00000000089f17bc      0x168 c:/devkitpro/devkitpsp/bin/../lib/gcc/psp/4.1.2/../../../../psp/lib\libc.a(__call_atexit.o)
                0x00000000089f17bc                __call_exitprocs
 .text          0x00000000089f1924       0x10 c:/devkitpro/devkitpsp/bin/../lib/gcc/psp/4.1.2/../../../../psp/lib\libc.a(__fout.o)
                0x00000000089f1924                __fout
 .text          0x00000000089f1934       0x48 c:/devkitpro/devkitpsp/bin/../lib/gcc/psp/4.1.2/../../../../psp/lib\libc.a(__psp_set_errno.o)
                0x00000000089f1934                __psp_set_errno
 .text          0x00000000089f197c       0x84 c:/devkitpro/devkitpsp/bin/../lib/gcc/psp/4.1.2/../../../../psp/lib\libc.a(__sout.o)
                0x00000000089f197c                __sout
 .text          0x00000000089f1a00      0x1a4 c:/devkitpro/devkitpsp/bin/../lib/gcc/psp/4.1.2/../../../../psp/lib\libc.a(_fstat.o)
                0x00000000089f1a00                _fstat
 .text          0x00000000089f1ba4       0x28 c:/devkitpro/devkitpsp/bin/../lib/gcc/psp/4.1.2/../../../../psp/lib\libc.a(_getpid.o)
                0x00000000089f1ba4                _getpid
 .text          0x00000000089f1bcc       0x20 c:/devkitpro/devkitpsp/bin/../lib/gcc/psp/4.1.2/../../../../psp/lib\libc.a(_gettimeofday.o)
                0x00000000089f1bcc                _gettimeofday
 .text          0x00000000089f1bec       0x28 c:/devkitpro/devkitpsp/bin/../lib/gcc/psp/4.1.2/../../../../psp/lib\libc.a(_kill.o)
                0x00000000089f1bec                _kill
 .text          0x00000000089f1c14      0x19c c:/devkitpro/devkitpsp/bin/../lib/gcc/psp/4.1.2/../../../../psp/lib\libc.a(_open.o)
                0x00000000089f1c14                _open
 .text          0x00000000089f1db0      0x14c c:/devkitpro/devkitpsp/bin/../lib/gcc/psp/4.1.2/../../../../psp/lib\libc.a(_sbrk.o)
                0x00000000089f1db0                __psp_free_heap
                0x00000000089f1dd0                _sbrk
 .text          0x00000000089f1efc       0xc4 c:/devkitpro/devkitpsp/bin/../lib/gcc/psp/4.1.2/../../../../psp/lib\libc.a(_write.o)
                0x00000000089f1efc                _write
 .text          0x00000000089f1fc0       0x70 c:/devkitpro/devkitpsp/bin/../lib/gcc/psp/4.1.2/../../../../psp/lib\libc.a(closer.o)
                0x00000000089f1fc0                _close_r
 .text          0x00000000089f2030       0x78 c:/devkitpro/devkitpsp/bin/../lib/gcc/psp/4.1.2/../../../../psp/lib\libc.a(fcntlr.o)
                0x00000000089f2030                _fcntl_r
 .text          0x00000000089f20a8      0x374 c:/devkitpro/devkitpsp/bin/../lib/gcc/psp/4.1.2/../../../../psp/lib\libc.a(fdman.o)
                0x00000000089f2340                __psp_fdman_init
                0x00000000089f20a8                __psp_fdman_release_descriptor
                0x00000000089f2290                __psp_fdman_get_new_descriptor
                0x00000000089f216c                __psp_fdman_get_dup_descriptor
 .text          0x00000000089f241c        0xc c:/devkitpro/devkitpsp/bin/../lib/gcc/psp/4.1.2/../../../../psp/lib\libc.a(gettzinfo.o)
                0x00000000089f241c                __gettzinfo
 .text          0x00000000089f2428       0xc4 c:/devkitpro/devkitpsp/bin/../lib/gcc/psp/4.1.2/../../../../psp/lib\libc.a(interrupt.o)
                0x00000000089f2428                pspDisableInterrupts
                0x00000000089f248c                pspEnableInterrupts
 .text          0x00000000089f24ec       0x68 c:/devkitpro/devkitpsp/bin/../lib/gcc/psp/4.1.2/../../../../psp/lib\libc.a(isatty.o)
                0x00000000089f24ec                isatty
 .text          0x00000000089f2554       0x18 c:/devkitpro/devkitpsp/bin/../lib/gcc/psp/4.1.2/../../../../psp/lib\libc.a(isdigit.o)
                0x00000000089f2554                isdigit
 .text          0x00000000089f256c       0xd0 c:/devkitpro/devkitpsp/bin/../lib/gcc/psp/4.1.2/../../../../psp/lib\libc.a(locale.o)
                0x00000000089f2590                _setlocale_r
                0x00000000089f256c                __locale_charset
                0x00000000089f2578                _localeconv_r
                0x00000000089f2624                setlocale
                0x00000000089f2584                localeconv
 .text          0x00000000089f263c       0x78 c:/devkitpro/devkitpsp/bin/../lib/gcc/psp/4.1.2/../../../../psp/lib\libc.a(lseekr.o)
                0x00000000089f263c                _lseek_r
 .text          0x00000000089f26b4     0x106c c:/devkitpro/devkitpsp/bin/../lib/gcc/psp/4.1.2/../../../../psp/lib\libc.a(mprec.o)
                0x00000000089f2b70                _mprec_log10
                0x00000000089f26e0                _hi0bits
                0x00000000089f2c1c                _Balloc
                0x00000000089f2ce0                _d2b
                0x00000000089f3160                _multiply
                0x00000000089f2aac                _ratio
                0x00000000089f35ec                _s2b
                0x00000000089f337c                _i2b
                0x00000000089f2768                _lo0bits
                0x00000000089f2838                __mcmp
                0x00000000089f34c0                _pow5mult
                0x00000000089f289c                _ulp
                0x00000000089f291c                _b2d
                0x00000000089f33b0                _multadd
                0x00000000089f2e70                __mdiff
                0x00000000089f3004                _lshift
                0x00000000089f26b4                _Bfree
 .text          0x00000000089f3720      0x584 c:/devkitpro/devkitpsp/bin/../lib/gcc/psp/4.1.2/../../../../psp/lib\libc.a(pipe.o)
                0x00000000089f37d8                __psp_pipe_write
                0x00000000089f3ad8                __psp_pipe_read
                0x00000000089f393c                pipe
                0x00000000089f3720                __psp_pipe_nonblocking_write
                0x00000000089f3a54                __psp_pipe_peekmsgsize
                0x00000000089f3bac                __psp_pipe_nonblocking_read
                0x00000000089f386c                __psp_pipe_close
 .text          0x00000000089f3ca4      0x560 c:/devkitpro/devkitpsp/bin/../lib/gcc/psp/4.1.2/../../../../psp/lib\libc.a(pspcwd.o)
                0x00000000089f3ca4                __psp_get_drive
                0x00000000089f41b4                __psp_init_cwd
                0x00000000089f3d6c                __psp_path_normalize
                0x00000000089f3d48                __psp_safe_strcat
                0x00000000089f3d04                __psp_safe_strcpy
                0x00000000089f4030                __psp_path_absolute
 .text          0x00000000089f4204       0x78 c:/devkitpro/devkitpsp/bin/../lib/gcc/psp/4.1.2/../../../../psp/lib\libc.a(readr.o)
                0x00000000089f4204                _read_r
 .text          0x00000000089f427c       0x14 c:/devkitpro/devkitpsp/bin/../lib/gcc/psp/4.1.2/../../../../psp/lib\libc.a(s_nan.o)
                0x00000000089f427c                nan
 .text          0x00000000089f4290       0x14 c:/devkitpro/devkitpsp/bin/../lib/gcc/psp/4.1.2/../../../../psp/lib\libc.a(sf_nan.o)
                0x00000000089f4290                nanf
 .text          0x00000000089f42a4       0x10 c:/devkitpro/devkitpsp/bin/../lib/gcc/psp/4.1.2/../../../../psp/lib\libc.a(strdup.o)
                0x00000000089f42a4                strdup
 .text          0x00000000089f42b4       0x6c c:/devkitpro/devkitpsp/bin/../lib/gcc/psp/4.1.2/../../../../psp/lib\libc.a(strdup_r.o)
                0x00000000089f42b4                _strdup_r
 .text          0x00000000089f4320        0x8 c:/devkitpro/devkitpsp/bin/../lib/gcc/psp/4.1.2/../../../../psp/lib\libc.a(sysstat.o)
                0x00000000089f4320                stat
 .text          0x00000000089f4328      0x124 c:/devkitpro/devkitpsp/bin/../lib/gcc/psp/4.1.2/../../../../psp/lib\libc.a(_close.o)
                0x00000000089f4328                _close
 .text          0x00000000089f444c      0x144 c:/devkitpro/devkitpsp/bin/../lib/gcc/psp/4.1.2/../../../../psp/lib\libc.a(_fcntl.o)
                0x00000000089f444c                _fcntl
 .text          0x00000000089f4590       0x78 c:/devkitpro/devkitpsp/bin/../lib/gcc/psp/4.1.2/../../../../psp/lib\libc.a(_lseek.o)
                0x00000000089f4590                _lseek
 .text          0x00000000089f4608       0xc4 c:/devkitpro/devkitpsp/bin/../lib/gcc/psp/4.1.2/../../../../psp/lib\libc.a(_read.o)
                0x00000000089f4608                _read
 .text          0x00000000089f46cc      0x16c c:/devkitpro/devkitpsp/bin/../lib/gcc/psp/4.1.2/../../../../psp/lib\libc.a(_stat.o)
                0x00000000089f4720                _stat
 .text          0x00000000089f4838       0x90 c:/devkitpro/devkitpsp/bin/../lib/gcc/psp/4.1.2/../../../../psp/lib\libc.a(chdir.o)
                0x00000000089f4838                chdir
 .text          0x00000000089f48c8      0x748 c:/devkitpro/devkitpsp/bin/../lib/gcc/psp/4.1.2/../../../../psp/lib\libc.a(mktime.o)
                0x00000000089f4c30                mktime
 .text          0x00000000089f5010      0x19c c:/devkitpro/devkitpsp/bin/../lib/gcc/psp/4.1.2/../../../../psp/lib\libc.a(setsockopt.o)
                0x00000000089f5010                setsockopt
                0x00000000089f511c                getsockopt
 .text          0x00000000089f51ac       0x64 c:/devkitpro/devkitpsp/bin/../lib/gcc/psp/4.1.2/../../../../psp/lib\libc.a(div.o)
                0x00000000089f51ac                div
 .text          0x00000000089f5210       0xa8 c:/devkitpro/devkitpsp/bin/../lib/gcc/psp/4.1.2\libgcc.a(_fixunsdfsi.o)
                0x00000000089f5210                __fixunsdfsi
 .text          0x00000000089f52b8      0x624 c:/devkitpro/devkitpsp/bin/../lib/gcc/psp/4.1.2\libgcc.a(_udivdi3.o)
                0x00000000089f52b8                __udivdi3
 .text          0x00000000089f58dc      0x658 c:/devkitpro/devkitpsp/bin/../lib/gcc/psp/4.1.2\libgcc.a(_umoddi3.o)
                0x00000000089f58dc                __umoddi3
 .text          0x00000000089f5f34       0x48 c:/devkitpro/devkitpsp/bin/../lib/gcc/psp/4.1.2\libgcc.a(_sf_to_df.o)
                0x00000000089f5f34                __extendsfdf2
 .text          0x00000000089f5f7c      0x434 c:/devkitpro/devkitpsp/bin/../lib/gcc/psp/4.1.2\libgcc.a(_addsub_df.o)
                0x00000000089f633c                __adddf3
                0x00000000089f62bc                __subdf3
 .text          0x00000000089f63b0      0x3ac c:/devkitpro/devkitpsp/bin/../lib/gcc/psp/4.1.2\libgcc.a(_mul_df.o)
                0x00000000089f63b0                __muldf3
 .text          0x00000000089f675c      0x264 c:/devkitpro/devkitpsp/bin/../lib/gcc/psp/4.1.2\libgcc.a(_div_df.o)
                0x00000000089f675c                __divdf3
 .text          0x00000000089f69c0       0xa0 c:/devkitpro/devkitpsp/bin/../lib/gcc/psp/4.1.2\libgcc.a(_eq_df.o)
                0x00000000089f69c0                __eqdf2
 .text          0x00000000089f6a60       0xa0 c:/devkitpro/devkitpsp/bin/../lib/gcc/psp/4.1.2\libgcc.a(_ne_df.o)
                0x00000000089f6a60                __nedf2
 .text          0x00000000089f6b00       0x8c c:/devkitpro/devkitpsp/bin/../lib/gcc/psp/4.1.2\libgcc.a(_gt_df.o)
                0x00000000089f6b00                __gtdf2
 .text          0x00000000089f6b8c       0x8c c:/devkitpro/devkitpsp/bin/../lib/gcc/psp/4.1.2\libgcc.a(_ge_df.o)
                0x00000000089f6b8c                __gedf2
 .text          0x00000000089f6c18       0xa0 c:/devkitpro/devkitpsp/bin/../lib/gcc/psp/4.1.2\libgcc.a(_lt_df.o)
                0x00000000089f6c18                __ltdf2
 .text          0x00000000089f6cb8       0xa0 c:/devkitpro/devkitpsp/bin/../lib/gcc/psp/4.1.2\libgcc.a(_le_df.o)
                0x00000000089f6cb8                __ledf2
 .text          0x00000000089f6d58       0xdc c:/devkitpro/devkitpsp/bin/../lib/gcc/psp/4.1.2\libgcc.a(_si_to_df.o)
                0x00000000089f6d58                __floatsidf
 .text          0x00000000089f6e34       0xc0 c:/devkitpro/devkitpsp/bin/../lib/gcc/psp/4.1.2\libgcc.a(_df_to_si.o)
                0x00000000089f6e34                __fixdfsi
 .text          0x00000000089f6ef4       0x34 c:/devkitpro/devkitpsp/bin/../lib/gcc/psp/4.1.2\libgcc.a(_make_df.o)
                0x00000000089f6ef4                __make_dp
 .text          0x00000000089f6f28       0x70 c:/devkitpro/devkitpsp/bin/../lib/gcc/psp/4.1.2\libgcc.a(_df_to_sf.o)
                0x00000000089f6f28                __truncdfsf2
 .text          0x00000000089f6f98     0x2778 c:/devkitpro/devkitpsp/bin/../lib/gcc/psp/4.1.2\libgcc.a(unwind-dw2.o)
                0x00000000089f702c                _Unwind_GetIP
                0x00000000089f9284                _Unwind_Resume_or_Rethrow
                0x00000000089f7044                _Unwind_GetRegionStart
                0x00000000089f8d0c                _Unwind_Backtrace
                0x00000000089f7024                _Unwind_GetCFA
                0x00000000089f7bf4                __frame_state_for
                0x00000000089f9404                _Unwind_Resume
                0x00000000089f705c                _Unwind_DeleteException
                0x00000000089f8f30                _Unwind_RaiseException
                0x00000000089f7034                _Unwind_SetIP
                0x00000000089f7054                _Unwind_GetTextRelBase
                0x00000000089f72fc                _Unwind_FindEnclosingFunction
                0x00000000089f703c                _Unwind_GetLanguageSpecificData
                0x00000000089f9588                _Unwind_ForcedUnwind
                0x00000000089f707c                _Unwind_SetGR
                0x00000000089f70cc                _Unwind_GetGR
                0x00000000089f704c                _Unwind_GetDataRelBase
 .text          0x00000000089f9710     0x16fc c:/devkitpro/devkitpsp/bin/../lib/gcc/psp/4.1.2\libgcc.a(unwind-dw2-fde.o)
                0x00000000089fab98                _Unwind_Find_FDE
                0x00000000089fa2fc                __register_frame
                0x00000000089fa2cc                __register_frame_table
                0x00000000089f979c                __register_frame_info_bases
                0x00000000089fa440                __deregister_frame_info
                0x00000000089fa348                __deregister_frame_info_bases
                0x00000000089f97ec                __register_frame_info_table_bases
                0x00000000089fa448                __deregister_frame
                0x00000000089f981c                __register_frame_info_table
                0x00000000089f97e0                __register_frame_info
 .text          0x00000000089fae0c       0xd0 c:/devkitpro/devkitpsp/bin/../lib/gcc/psp/4.1.2\libgcc.a(_unpack_sf.o)
                0x00000000089fae0c                __unpack_f
 .text          0x00000000089faedc       0x2c c:/devkitpro/devkitpsp/bin/../lib/gcc/psp/4.1.2\libgcc.a(_make_sf.o)
                0x00000000089faedc                __make_fp
 .text          0x00000000089faf08      0x290 c:/devkitpro/devkitpsp/bin/../lib/gcc/psp/4.1.2\libgcc.a(_pack_df.o)
                0x00000000089faf08                __pack_d
 .text          0x00000000089fb198      0x124 c:/devkitpro/devkitpsp/bin/../lib/gcc/psp/4.1.2\libgcc.a(_unpack_df.o)
                0x00000000089fb198                __unpack_d
 .text          0x00000000089fb2bc      0x130 c:/devkitpro/devkitpsp/bin/../lib/gcc/psp/4.1.2\libgcc.a(_fpcmp_parts_df.o)
                0x00000000089fb2bc                __fpcmp_parts_d
 .text          0x00000000089fb3ec      0x194 c:/devkitpro/devkitpsp/bin/../lib/gcc/psp/4.1.2\libgcc.a(_pack_sf.o)
                0x00000000089fb3ec                __pack_f
 .text          0x00000000089fb580       0x68 c:/devkitpro/devkitpsp/bin/../lib/gcc/psp/4.1.2/crtend.o
 *(.text.*personality*)
 *(.gnu.warning)
 *(.mips16.fn.*)
 *(.mips16.call.*)

.fini           0x00000000089fb5e8       0x1c
 *(.fini)
 .fini          0x00000000089fb5e8        0x8 c:/devkitpro/devkitpsp/bin/../lib/gcc/psp/4.1.2/crti.o
                0x00000000089fb5e8                _fini
 .fini          0x00000000089fb5f0        0x8 c:/devkitpro/devkitpsp/bin/../lib/gcc/psp/4.1.2/crtbegin.o
 .fini          0x00000000089fb5f8        0xc c:/devkitpro/devkitpsp/bin/../lib/gcc/psp/4.1.2/crtn.o

.sceStub.text   0x00000000089fb604      0x2d0
 *(.sceStub.text)
 .sceStub.text  0x00000000089fb604       0x10 c:/devkitPro/devkitPSP/psp/sdk/lib\libosl.a(stub.o)
                0x00000000089fb604                sceDmacMemcpy
                0x00000000089fb60c                sceDmacTryMemcpy
 .sceStub.text  0x00000000089fb614        0x8 c:/devkitPro/devkitPSP/psp/sdk/lib\libpsphprm.a(sceHprm_0004.o)
                0x00000000089fb614                sceHprmIsHeadphoneExist
 .sceStub.text  0x00000000089fb61c        0x8 c:/devkitPro/devkitPSP/psp/sdk/lib\libpspctrl.a(sceCtrl_0001.o)
                0x00000000089fb61c                sceCtrlSetSamplingCycle
 .sceStub.text  0x00000000089fb624        0x8 c:/devkitPro/devkitPSP/psp/sdk/lib\libpspctrl.a(sceCtrl_0003.o)
                0x00000000089fb624                sceCtrlSetSamplingMode
 .sceStub.text  0x00000000089fb62c        0x8 c:/devkitPro/devkitPSP/psp/sdk/lib\libpspctrl.a(sceCtrl_0005.o)
                0x00000000089fb62c                sceCtrlPeekBufferPositive
 .sceStub.text  0x00000000089fb634        0x8 c:/devkitPro/devkitPSP/psp/sdk/lib\libpsppower.a(scePower_0010.o)
                0x00000000089fb634                scePowerIsPowerOnline
 .sceStub.text  0x00000000089fb63c        0x8 c:/devkitPro/devkitPSP/psp/sdk/lib\libpsppower.a(scePower_0011.o)
                0x00000000089fb63c                scePowerIsBatteryExist
 .sceStub.text  0x00000000089fb644        0x8 c:/devkitPro/devkitPSP/psp/sdk/lib\libpsppower.a(scePower_0012.o)
                0x00000000089fb644                scePowerIsBatteryCharging
 .sceStub.text  0x00000000089fb64c        0x8 c:/devkitPro/devkitPSP/psp/sdk/lib\libpsppower.a(scePower_0014.o)
                0x00000000089fb64c                scePowerIsLowBattery
 .sceStub.text  0x00000000089fb654        0x8 c:/devkitPro/devkitPSP/psp/sdk/lib\libpsppower.a(scePower_0018.o)
                0x00000000089fb654                scePowerGetBatteryLifePercent
 .sceStub.text  0x00000000089fb65c        0x8 c:/devkitPro/devkitPSP/psp/sdk/lib\libpsppower.a(scePower_0019.o)
                0x00000000089fb65c                scePowerGetBatteryLifeTime
 .sceStub.text  0x00000000089fb664        0x8 c:/devkitPro/devkitPSP/psp/sdk/lib\libpsppower.a(scePower_0020.o)
                0x00000000089fb664                scePowerGetBatteryTemp
 .sceStub.text  0x00000000089fb66c        0x8 c:/devkitPro/devkitPSP/psp/sdk/lib\libpsppower.a(scePower_0035.o)
                0x00000000089fb66c                scePowerRegisterCallback
 .sceStub.text  0x00000000089fb674        0x8 c:/devkitPro/devkitPSP/psp/sdk/lib\libpsppower.a(scePower_0046.o)
                0x00000000089fb674                scePowerSetClockFrequency
 .sceStub.text  0x00000000089fb67c        0x8 c:/devkitPro/devkitPSP/psp/sdk/lib\libpspusb.a(sceUsb_0001.o)
                0x00000000089fb67c                sceUsbStart
 .sceStub.text  0x00000000089fb684        0x8 c:/devkitPro/devkitPSP/psp/sdk/lib\libpspusb.a(sceUsb_0002.o)
                0x00000000089fb684                sceUsbStop
 .sceStub.text  0x00000000089fb68c        0x8 c:/devkitPro/devkitPSP/psp/sdk/lib\libpspusb.a(sceUsb_0003.o)
                0x00000000089fb68c                sceUsbGetState
 .sceStub.text  0x00000000089fb694        0x8 c:/devkitPro/devkitPSP/psp/sdk/lib\libpspusb.a(sceUsb_0006.o)
                0x00000000089fb694                sceUsbActivate
 .sceStub.text  0x00000000089fb69c        0x8 c:/devkitPro/devkitPSP/psp/sdk/lib\libpspusb.a(sceUsb_0007.o)
                0x00000000089fb69c                sceUsbDeactivate
 .sceStub.text  0x00000000089fb6a4        0x8 c:/devkitPro/devkitPSP/psp/sdk/lib\libpspusbstor.a(sceUsbstorBoot_0001.o)
                0x00000000089fb6a4                sceUsbstorBootSetCapacity
 .sceStub.text  0x00000000089fb6ac        0x8 c:/devkitPro/devkitPSP/psp/sdk/lib\libpspaudio.a(sceAudio_0002.o)
                0x00000000089fb6ac                sceAudioOutputBlocking
 .sceStub.text  0x00000000089fb6b4        0x8 c:/devkitPro/devkitPSP/psp/sdk/lib\libpspaudio.a(sceAudio_0004.o)
                0x00000000089fb6b4                sceAudioOutputPannedBlocking
 .sceStub.text  0x00000000089fb6bc        0x8 c:/devkitPro/devkitPSP/psp/sdk/lib\libpspaudio.a(sceAudio_0005.o)
                0x00000000089fb6bc                sceAudioChReserve
 .sceStub.text  0x00000000089fb6c4        0x8 c:/devkitPro/devkitPSP/psp/sdk/lib\libpspaudio.a(sceAudio_0007.o)
                0x00000000089fb6c4                sceAudioChRelease
 .sceStub.text  0x00000000089fb6cc        0x8 c:/devkitPro/devkitPSP/psp/sdk/lib\libpspaudio.a(sceAudio_0010.o)
                0x00000000089fb6cc                sceAudioChangeChannelConfig
 .sceStub.text  0x00000000089fb6d4        0x8 c:/devkitPro/devkitPSP/psp/sdk/lib\libpspdisplay.a(sceDisplay_0001.o)
                0x00000000089fb6d4                sceDisplaySetMode
 .sceStub.text  0x00000000089fb6dc        0x8 c:/devkitPro/devkitPSP/psp/sdk/lib\libpspdisplay.a(sceDisplay_0006.o)
                0x00000000089fb6dc                sceDisplaySetFrameBuf
 .sceStub.text  0x00000000089fb6e4        0x8 c:/devkitPro/devkitPSP/psp/sdk/lib\libpspdisplay.a(sceDisplay_0014.o)
                0x00000000089fb6e4                sceDisplayWaitVblankStart
 .sceStub.text  0x00000000089fb6ec        0x8 c:/devkitPro/devkitPSP/psp/sdk/lib\libpspge.a(sceGe_user_0002.o)
                0x00000000089fb6ec                sceGeEdramGetAddr
 .sceStub.text  0x00000000089fb6f4        0x8 c:/devkitPro/devkitPSP/psp/sdk/lib\libpspge.a(sceGe_user_0008.o)
                0x00000000089fb6f4                sceGeListEnQueue
 .sceStub.text  0x00000000089fb6fc        0x8 c:/devkitPro/devkitPSP/psp/sdk/lib\libpspge.a(sceGe_user_0011.o)
                0x00000000089fb6fc                sceGeListUpdateStallAddr
 .sceStub.text  0x00000000089fb704        0x8 c:/devkitPro/devkitPSP/psp/sdk/lib\libpspge.a(sceGe_user_0012.o)
                0x00000000089fb704                sceGeListSync
 .sceStub.text  0x00000000089fb70c        0x8 c:/devkitPro/devkitPSP/psp/sdk/lib\libpspge.a(sceGe_user_0013.o)
                0x00000000089fb70c                sceGeDrawSync
 .sceStub.text  0x00000000089fb714        0x8 c:/devkitPro/devkitPSP/psp/sdk/lib\libpspge.a(sceGe_user_0016.o)
                0x00000000089fb714                sceGeSetCallback
 .sceStub.text  0x00000000089fb71c        0x8 c:/devkitPro/devkitPSP/psp/sdk/lib\libpspge.a(sceGe_user_0017.o)
                0x00000000089fb71c                sceGeUnsetCallback
 .sceStub.text  0x00000000089fb724        0x8 c:/devkitPro/devkitPSP/psp/sdk/lib\libpspnet_inet.a(sceNetInet_0010.o)
                0x00000000089fb724                sceNetInetGetsockopt
 .sceStub.text  0x00000000089fb72c        0x8 c:/devkitPro/devkitPSP/psp/sdk/lib\libpspnet_inet.a(sceNetInet_0020.o)
                0x00000000089fb72c                sceNetInetSetsockopt
 .sceStub.text  0x00000000089fb734        0x8 c:/devkitPro/devkitPSP/psp/sdk/lib\libpspnet_inet.a(sceNetInet_0024.o)
                0x00000000089fb734                sceNetInetGetErrno
 .sceStub.text  0x00000000089fb73c        0x8 c:/devkitPro/devkitPSP/psp/sdk/lib\libpsputility.a(sceUtility_0031.o)
                0x00000000089fb73c                sceUtilityGetSystemParamInt
 .sceStub.text  0x00000000089fb744        0x8 c:/devkitPro/devkitPSP/psp/sdk/lib\libpspuser.a(IoFileMgrForUser_0007.o)
                0x00000000089fb744                sceIoClose
 .sceStub.text  0x00000000089fb74c        0x8 c:/devkitPro/devkitPSP/psp/sdk/lib\libpspuser.a(IoFileMgrForUser_0009.o)
                0x00000000089fb74c                sceIoOpen
 .sceStub.text  0x00000000089fb754        0x8 c:/devkitPro/devkitPSP/psp/sdk/lib\libpspuser.a(IoFileMgrForUser_0011.o)
                0x00000000089fb754                sceIoRead
 .sceStub.text  0x00000000089fb75c        0x8 c:/devkitPro/devkitPSP/psp/sdk/lib\libpspuser.a(IoFileMgrForUser_0013.o)
                0x00000000089fb75c                sceIoWrite
 .sceStub.text  0x00000000089fb764        0x8 c:/devkitPro/devkitPSP/psp/sdk/lib\libpspuser.a(IoFileMgrForUser_0015.o)
                0x00000000089fb764                sceIoLseek
 .sceStub.text  0x00000000089fb76c        0x8 c:/devkitPro/devkitPSP/psp/sdk/lib\libpspuser.a(IoFileMgrForUser_0017.o)
                0x00000000089fb76c                sceIoLseek32
 .sceStub.text  0x00000000089fb774        0x8 c:/devkitPro/devkitPSP/psp/sdk/lib\libpspuser.a(IoFileMgrForUser_0021.o)
                0x00000000089fb774                sceIoDopen
 .sceStub.text  0x00000000089fb77c        0x8 c:/devkitPro/devkitPSP/psp/sdk/lib\libpspuser.a(IoFileMgrForUser_0022.o)
                0x00000000089fb77c                sceIoDread
 .sceStub.text  0x00000000089fb784        0x8 c:/devkitPro/devkitPSP/psp/sdk/lib\libpspuser.a(IoFileMgrForUser_0023.o)
                0x00000000089fb784                sceIoDclose
 .sceStub.text  0x00000000089fb78c        0x8 c:/devkitPro/devkitPSP/psp/sdk/lib\libpspuser.a(IoFileMgrForUser_0024.o)
                0x00000000089fb78c                sceIoRemove
 .sceStub.text  0x00000000089fb794        0x8 c:/devkitPro/devkitPSP/psp/sdk/lib\libpspuser.a(IoFileMgrForUser_0025.o)
                0x00000000089fb794                sceIoMkdir
 .sceStub.text  0x00000000089fb79c        0x8 c:/devkitPro/devkitPSP/psp/sdk/lib\libpspuser.a(IoFileMgrForUser_0027.o)
                0x00000000089fb79c                sceIoChdir
 .sceStub.text  0x00000000089fb7a4        0x8 c:/devkitPro/devkitPSP/psp/sdk/lib\libpspuser.a(IoFileMgrForUser_0029.o)
                0x00000000089fb7a4                sceIoGetstat
 .sceStub.text  0x00000000089fb7ac        0x8 c:/devkitPro/devkitPSP/psp/sdk/lib\libpspuser.a(ModuleMgrForUser_0002.o)
                0x00000000089fb7ac                sceKernelLoadModule
 .sceStub.text  0x00000000089fb7b4        0x8 c:/devkitPro/devkitPSP/psp/sdk/lib\libpspuser.a(ModuleMgrForUser_0005.o)
                0x00000000089fb7b4                sceKernelStartModule
 .sceStub.text  0x00000000089fb7bc        0x8 c:/devkitPro/devkitPSP/psp/sdk/lib\libpspuser.a(ModuleMgrForUser_0008.o)
                0x00000000089fb7bc                sceKernelSelfStopUnloadModule
 .sceStub.text  0x00000000089fb7c4        0x8 c:/devkitPro/devkitPSP/psp/sdk/lib\libpspuser.a(StdioForUser_0007.o)
                0x00000000089fb7c4                sceKernelStdin
 .sceStub.text  0x00000000089fb7cc        0x8 c:/devkitPro/devkitPSP/psp/sdk/lib\libpspuser.a(StdioForUser_0008.o)
                0x00000000089fb7cc                sceKernelStdout
 .sceStub.text  0x00000000089fb7d4        0x8 c:/devkitPro/devkitPSP/psp/sdk/lib\libpspuser.a(StdioForUser_0009.o)
                0x00000000089fb7d4                sceKernelStderr
 .sceStub.text  0x00000000089fb7dc        0x8 c:/devkitPro/devkitPSP/psp/sdk/lib\libpspuser.a(SysMemUserForUser_0001.o)
                0x00000000089fb7dc                sceKernelMaxFreeMemSize
 .sceStub.text  0x00000000089fb7e4        0x8 c:/devkitPro/devkitPSP/psp/sdk/lib\libpspuser.a(SysMemUserForUser_0003.o)
                0x00000000089fb7e4                sceKernelAllocPartitionMemory
 .sceStub.text  0x00000000089fb7ec        0x8 c:/devkitPro/devkitPSP/psp/sdk/lib\libpspuser.a(SysMemUserForUser_0004.o)
                0x00000000089fb7ec                sceKernelFreePartitionMemory
 .sceStub.text  0x00000000089fb7f4        0x8 c:/devkitPro/devkitPSP/psp/sdk/lib\libpspuser.a(SysMemUserForUser_0005.o)
                0x00000000089fb7f4                sceKernelGetBlockHeadAddr
 .sceStub.text  0x00000000089fb7fc        0x8 c:/devkitPro/devkitPSP/psp/sdk/lib\libpspuser.a(ThreadManForUser_0005.o)
                0x00000000089fb7fc                sceKernelCreateCallback
 .sceStub.text  0x00000000089fb804        0x8 c:/devkitPro/devkitPSP/psp/sdk/lib\libpspuser.a(ThreadManForUser_0013.o)
                0x00000000089fb804                sceKernelSleepThreadCB
 .sceStub.text  0x00000000089fb80c        0x8 c:/devkitPro/devkitPSP/psp/sdk/lib\libpspuser.a(ThreadManForUser_0018.o)
                0x00000000089fb80c                sceKernelWaitThreadEnd
 .sceStub.text  0x00000000089fb814        0x8 c:/devkitPro/devkitPSP/psp/sdk/lib\libpspuser.a(ThreadManForUser_0032.o)
                0x00000000089fb814                sceKernelCreateEventFlag
 .sceStub.text  0x00000000089fb81c        0x8 c:/devkitPro/devkitPSP/psp/sdk/lib\libpspuser.a(ThreadManForUser_0033.o)
                0x00000000089fb81c                sceKernelDeleteEventFlag
 .sceStub.text  0x00000000089fb824        0x8 c:/devkitPro/devkitPSP/psp/sdk/lib\libpspuser.a(ThreadManForUser_0034.o)
                0x00000000089fb824                sceKernelSetEventFlag
 .sceStub.text  0x00000000089fb82c        0x8 c:/devkitPro/devkitPSP/psp/sdk/lib\libpspuser.a(ThreadManForUser_0049.o)
                0x00000000089fb82c                sceKernelCreateMsgPipe
 .sceStub.text  0x00000000089fb834        0x8 c:/devkitPro/devkitPSP/psp/sdk/lib\libpspuser.a(ThreadManForUser_0050.o)
                0x00000000089fb834                sceKernelDeleteMsgPipe
 .sceStub.text  0x00000000089fb83c        0x8 c:/devkitPro/devkitPSP/psp/sdk/lib\libpspuser.a(ThreadManForUser_0051.o)
                0x00000000089fb83c                sceKernelSendMsgPipe
 .sceStub.text  0x00000000089fb844        0x8 c:/devkitPro/devkitPSP/psp/sdk/lib\libpspuser.a(ThreadManForUser_0053.o)
                0x00000000089fb844                sceKernelTrySendMsgPipe
 .sceStub.text  0x00000000089fb84c        0x8 c:/devkitPro/devkitPSP/psp/sdk/lib\libpspuser.a(ThreadManForUser_0054.o)
                0x00000000089fb84c                sceKernelReceiveMsgPipe
 .sceStub.text  0x00000000089fb854        0x8 c:/devkitPro/devkitPSP/psp/sdk/lib\libpspuser.a(ThreadManForUser_0056.o)
                0x00000000089fb854                sceKernelTryReceiveMsgPipe
 .sceStub.text  0x00000000089fb85c        0x8 c:/devkitPro/devkitPSP/psp/sdk/lib\libpspuser.a(ThreadManForUser_0058.o)
                0x00000000089fb85c                sceKernelReferMsgPipeStatus
 .sceStub.text  0x00000000089fb864        0x8 c:/devkitPro/devkitPSP/psp/sdk/lib\libpspuser.a(ThreadManForUser_0101.o)
                0x00000000089fb864                sceKernelCreateThread
 .sceStub.text  0x00000000089fb86c        0x8 c:/devkitPro/devkitPSP/psp/sdk/lib\libpspuser.a(ThreadManForUser_0102.o)
                0x00000000089fb86c                sceKernelDeleteThread
 .sceStub.text  0x00000000089fb874        0x8 c:/devkitPro/devkitPSP/psp/sdk/lib\libpspuser.a(ThreadManForUser_0103.o)
                0x00000000089fb874                sceKernelStartThread
 .sceStub.text  0x00000000089fb87c        0x8 c:/devkitPro/devkitPSP/psp/sdk/lib\libpspuser.a(ThreadManForUser_0105.o)
                0x00000000089fb87c                sceKernelExitThread
 .sceStub.text  0x00000000089fb884        0x8 c:/devkitPro/devkitPSP/psp/sdk/lib\libpspuser.a(ThreadManForUser_0106.o)
                0x00000000089fb884                sceKernelExitDeleteThread
 .sceStub.text  0x00000000089fb88c        0x8 c:/devkitPro/devkitPSP/psp/sdk/lib\libpspuser.a(UtilsForUser_0014.o)
                0x00000000089fb88c                sceKernelLibcClock
 .sceStub.text  0x00000000089fb894        0x8 c:/devkitPro/devkitPSP/psp/sdk/lib\libpspuser.a(UtilsForUser_0015.o)
                0x00000000089fb894                sceKernelLibcTime
 .sceStub.text  0x00000000089fb89c        0x8 c:/devkitPro/devkitPSP/psp/sdk/lib\libpspuser.a(UtilsForUser_0016.o)
                0x00000000089fb89c                sceKernelLibcGettimeofday
 .sceStub.text  0x00000000089fb8a4        0x8 c:/devkitPro/devkitPSP/psp/sdk/lib\libpspuser.a(UtilsForUser_0018.o)
                0x00000000089fb8a4                sceKernelDcacheWritebackInvalidateAll
 .sceStub.text  0x00000000089fb8ac        0x8 c:/devkitPro/devkitPSP/psp/sdk/lib\libpspuser.a(UtilsForUser_0020.o)
                0x00000000089fb8ac                sceKernelDcacheWritebackInvalidateRange
 .sceStub.text  0x00000000089fb8b4        0x8 c:/devkitPro/devkitPSP/psp/sdk/lib\libpspuser.a(InterruptManager_0001.o)
                0x00000000089fb8b4                sceKernelRegisterSubIntrHandler
 .sceStub.text  0x00000000089fb8bc        0x8 c:/devkitPro/devkitPSP/psp/sdk/lib\libpspuser.a(InterruptManager_0003.o)
                0x00000000089fb8bc                sceKernelEnableSubIntr
 .sceStub.text  0x00000000089fb8c4        0x8 c:/devkitPro/devkitPSP/psp/sdk/lib\libpspuser.a(LoadExecForUser_0003.o)
                0x00000000089fb8c4                sceKernelExitGame
 .sceStub.text  0x00000000089fb8cc        0x8 c:/devkitPro/devkitPSP/psp/sdk/lib\libpspuser.a(LoadExecForUser_0004.o)
                0x00000000089fb8cc                sceKernelRegisterExitCallback
 *(SORT(.sceStub.text.*))
                0x00000000089fb8d4                PROVIDE (__etext, .)
                0x00000000089fb8d4                PROVIDE (_etext, .)
                0x00000000089fb8d4                PROVIDE (etext, .)

.lib.ent.top    0x00000000089fb8d4        0x4
 *(.lib.ent.top)
 .lib.ent.top   0x00000000089fb8d4        0x4 psp/main.o

.lib.ent        0x00000000089fb8d8       0x10
 *(.lib.ent)
 .lib.ent       0x00000000089fb8d8       0x10 c:/devkitpro/devkitpsp/bin/../lib/gcc/psp/4.1.2/../../../../psp/lib/crt0.o

.lib.ent.btm    0x00000000089fb8e8        0x4
 *(.lib.ent.btm)
 .lib.ent.btm   0x00000000089fb8e8        0x4 psp/main.o

.lib.stub.top   0x00000000089fb8ec        0x4
 *(.lib.stub.top)
 .lib.stub.top  0x00000000089fb8ec        0x4 psp/main.o

.lib.stub       0x00000000089fb8f0      0x17c
 *(.lib.stub)
 .lib.stub      0x00000000089fb8f0       0x14 c:/devkitPro/devkitPSP/psp/sdk/lib\libosl.a(stub.o)
 .lib.stub      0x00000000089fb904       0x14 c:/devkitPro/devkitPSP/psp/sdk/lib\libpsphprm.a(sceHprm_0000.o)
                0x00000000089fb904                __stub_module_sceHprm
 .lib.stub      0x00000000089fb918       0x14 c:/devkitPro/devkitPSP/psp/sdk/lib\libpspctrl.a(sceCtrl_0000.o)
                0x00000000089fb918                __stub_module_sceCtrl
 .lib.stub      0x00000000089fb92c       0x14 c:/devkitPro/devkitPSP/psp/sdk/lib\libpsppower.a(scePower_0000.o)
                0x00000000089fb92c                __stub_module_scePower
 .lib.stub      0x00000000089fb940       0x14 c:/devkitPro/devkitPSP/psp/sdk/lib\libpspusb.a(sceUsb_0000.o)
                0x00000000089fb940                __stub_module_sceUsb
 .lib.stub      0x00000000089fb954       0x14 c:/devkitPro/devkitPSP/psp/sdk/lib\libpspusbstor.a(sceUsbstorBoot_0000.o)
                0x00000000089fb954                __stub_module_sceUsbstorBoot
 .lib.stub      0x00000000089fb968       0x14 c:/devkitPro/devkitPSP/psp/sdk/lib\libpspaudio.a(sceAudio_0000.o)
                0x00000000089fb968                __stub_module_sceAudio
 .lib.stub      0x00000000089fb97c       0x14 c:/devkitPro/devkitPSP/psp/sdk/lib\libpspdisplay.a(sceDisplay_0000.o)
                0x00000000089fb97c                __stub_module_sceDisplay
 .lib.stub      0x00000000089fb990       0x14 c:/devkitPro/devkitPSP/psp/sdk/lib\libpspge.a(sceGe_user_0000.o)
                0x00000000089fb990                __stub_module_sceGe_user
 .lib.stub      0x00000000089fb9a4       0x14 c:/devkitPro/devkitPSP/psp/sdk/lib\libpspnet_inet.a(sceNetInet_0000.o)
                0x00000000089fb9a4                __stub_module_sceNetInet
 .lib.stub      0x00000000089fb9b8       0x14 c:/devkitPro/devkitPSP/psp/sdk/lib\libpsputility.a(sceUtility_0000.o)
                0x00000000089fb9b8                __stub_module_sceUtility
 .lib.stub      0x00000000089fb9cc       0x14 c:/devkitPro/devkitPSP/psp/sdk/lib\libpspuser.a(IoFileMgrForUser_0000.o)
                0x00000000089fb9cc                __stub_module_IoFileMgrForUser
 .lib.stub      0x00000000089fb9e0       0x14 c:/devkitPro/devkitPSP/psp/sdk/lib\libpspuser.a(ModuleMgrForUser_0000.o)
                0x00000000089fb9e0                __stub_module_ModuleMgrForUser
 .lib.stub      0x00000000089fb9f4       0x14 c:/devkitPro/devkitPSP/psp/sdk/lib\libpspuser.a(StdioForUser_0000.o)
                0x00000000089fb9f4                __stub_module_StdioForUser
 .lib.stub      0x00000000089fba08       0x14 c:/devkitPro/devkitPSP/psp/sdk/lib\libpspuser.a(SysMemUserForUser_0000.o)
                0x00000000089fba08                __stub_module_SysMemUserForUser
 .lib.stub      0x00000000089fba1c       0x14 c:/devkitPro/devkitPSP/psp/sdk/lib\libpspuser.a(ThreadManForUser_0000.o)
                0x00000000089fba1c                __stub_module_ThreadManForUser
 .lib.stub      0x00000000089fba30       0x14 c:/devkitPro/devkitPSP/psp/sdk/lib\libpspuser.a(UtilsForUser_0000.o)
                0x00000000089fba30                __stub_module_UtilsForUser
 .lib.stub      0x00000000089fba44       0x14 c:/devkitPro/devkitPSP/psp/sdk/lib\libpspuser.a(InterruptManager_0000.o)
                0x00000000089fba44                __stub_module_InterruptManager
 .lib.stub      0x00000000089fba58       0x14 c:/devkitPro/devkitPSP/psp/sdk/lib\libpspuser.a(LoadExecForUser_0000.o)
                0x00000000089fba58                __stub_module_LoadExecForUser

.lib.stub.btm   0x00000000089fba6c        0x4
 *(.lib.stub.btm)
 .lib.stub.btm  0x00000000089fba6c        0x4 psp/main.o

.rodata.sceModuleInfo
                0x00000000089fba70       0x40
 *(.rodata.sceModuleInfo)
 .rodata.sceModuleInfo
                0x00000000089fba70       0x40 psp/main.o
                0x00000000089fba70                module_info

.rodata.sceResident
                0x00000000089fbab0      0x168
 *(.rodata.sceResident)
 .rodata.sceResident
                0x00000000089fbab0       0x10 c:/devkitpro/devkitpsp/bin/../lib/gcc/psp/4.1.2/../../../../psp/lib/crt0.o
 .rodata.sceResident
                0x00000000089fbac0        0xc c:/devkitPro/devkitPSP/psp/sdk/lib\libosl.a(stub.o)
 .rodata.sceResident
                0x00000000089fbacc        0xc c:/devkitPro/devkitPSP/psp/sdk/lib\libpsphprm.a(sceHprm_0000.o)
 .rodata.sceResident
                0x00000000089fbad8        0xc c:/devkitPro/devkitPSP/psp/sdk/lib\libpspctrl.a(sceCtrl_0000.o)
 .rodata.sceResident
                0x00000000089fbae4       0x10 c:/devkitPro/devkitPSP/psp/sdk/lib\libpsppower.a(scePower_0000.o)
 .rodata.sceResident
                0x00000000089fbaf4        0xc c:/devkitPro/devkitPSP/psp/sdk/lib\libpspusb.a(sceUsb_0000.o)
 .rodata.sceResident
                0x00000000089fbb00       0x14 c:/devkitPro/devkitPSP/psp/sdk/lib\libpspusbstor.a(sceUsbstorBoot_0000.o)
 .rodata.sceResident
                0x00000000089fbb14       0x10 c:/devkitPro/devkitPSP/psp/sdk/lib\libpspaudio.a(sceAudio_0000.o)
 .rodata.sceResident
                0x00000000089fbb24       0x10 c:/devkitPro/devkitPSP/psp/sdk/lib\libpspdisplay.a(sceDisplay_0000.o)
 .rodata.sceResident
                0x00000000089fbb34       0x10 c:/devkitPro/devkitPSP/psp/sdk/lib\libpspge.a(sceGe_user_0000.o)
 .rodata.sceResident
                0x00000000089fbb44       0x10 c:/devkitPro/devkitPSP/psp/sdk/lib\libpspnet_inet.a(sceNetInet_0000.o)
 .rodata.sceResident
                0x00000000089fbb54       0x10 c:/devkitPro/devkitPSP/psp/sdk/lib\libpsputility.a(sceUtility_0000.o)
 .rodata.sceResident
                0x00000000089fbb64       0x18 c:/devkitPro/devkitPSP/psp/sdk/lib\libpspuser.a(IoFileMgrForUser_0000.o)
 .rodata.sceResident
                0x00000000089fbb7c       0x18 c:/devkitPro/devkitPSP/psp/sdk/lib\libpspuser.a(ModuleMgrForUser_0000.o)
 .rodata.sceResident
                0x00000000089fbb94       0x14 c:/devkitPro/devkitPSP/psp/sdk/lib\libpspuser.a(StdioForUser_0000.o)
 .rodata.sceResident
                0x00000000089fbba8       0x18 c:/devkitPro/devkitPSP/psp/sdk/lib\libpspuser.a(SysMemUserForUser_0000.o)
 .rodata.sceResident
                0x00000000089fbbc0       0x18 c:/devkitPro/devkitPSP/psp/sdk/lib\libpspuser.a(ThreadManForUser_0000.o)
 .rodata.sceResident
                0x00000000089fbbd8       0x14 c:/devkitPro/devkitPSP/psp/sdk/lib\libpspuser.a(UtilsForUser_0000.o)
 .rodata.sceResident
                0x00000000089fbbec       0x18 c:/devkitPro/devkitPSP/psp/sdk/lib\libpspuser.a(InterruptManager_0000.o)
 .rodata.sceResident
                0x00000000089fbc04       0x14 c:/devkitPro/devkitPSP/psp/sdk/lib\libpspuser.a(LoadExecForUser_0000.o)

.rodata.sceNid  0x00000000089fbc18      0x168
 *(.rodata.sceNid)
 .rodata.sceNid
                0x00000000089fbc18        0x8 c:/devkitPro/devkitPSP/psp/sdk/lib\libosl.a(stub.o)
 .rodata.sceNid
                0x00000000089fbc20        0x4 c:/devkitPro/devkitPSP/psp/sdk/lib\libpsphprm.a(sceHprm_0004.o)
 .rodata.sceNid
                0x00000000089fbc24        0x4 c:/devkitPro/devkitPSP/psp/sdk/lib\libpspctrl.a(sceCtrl_0001.o)
 .rodata.sceNid
                0x00000000089fbc28        0x4 c:/devkitPro/devkitPSP/psp/sdk/lib\libpspctrl.a(sceCtrl_0003.o)
 .rodata.sceNid
                0x00000000089fbc2c        0x4 c:/devkitPro/devkitPSP/psp/sdk/lib\libpspctrl.a(sceCtrl_0005.o)
 .rodata.sceNid
                0x00000000089fbc30        0x4 c:/devkitPro/devkitPSP/psp/sdk/lib\libpsppower.a(scePower_0010.o)
 .rodata.sceNid
                0x00000000089fbc34        0x4 c:/devkitPro/devkitPSP/psp/sdk/lib\libpsppower.a(scePower_0011.o)
 .rodata.sceNid
                0x00000000089fbc38        0x4 c:/devkitPro/devkitPSP/psp/sdk/lib\libpsppower.a(scePower_0012.o)
 .rodata.sceNid
                0x00000000089fbc3c        0x4 c:/devkitPro/devkitPSP/psp/sdk/lib\libpsppower.a(scePower_0014.o)
 .rodata.sceNid
                0x00000000089fbc40        0x4 c:/devkitPro/devkitPSP/psp/sdk/lib\libpsppower.a(scePower_0018.o)
 .rodata.sceNid
                0x00000000089fbc44        0x4 c:/devkitPro/devkitPSP/psp/sdk/lib\libpsppower.a(scePower_0019.o)
 .rodata.sceNid
                0x00000000089fbc48        0x4 c:/devkitPro/devkitPSP/psp/sdk/lib\libpsppower.a(scePower_0020.o)
 .rodata.sceNid
                0x00000000089fbc4c        0x4 c:/devkitPro/devkitPSP/psp/sdk/lib\libpsppower.a(scePower_0035.o)
 .rodata.sceNid
                0x00000000089fbc50        0x4 c:/devkitPro/devkitPSP/psp/sdk/lib\libpsppower.a(scePower_0046.o)
 .rodata.sceNid
                0x00000000089fbc54        0x4 c:/devkitPro/devkitPSP/psp/sdk/lib\libpspusb.a(sceUsb_0001.o)
 .rodata.sceNid
                0x00000000089fbc58        0x4 c:/devkitPro/devkitPSP/psp/sdk/lib\libpspusb.a(sceUsb_0002.o)
 .rodata.sceNid
                0x00000000089fbc5c        0x4 c:/devkitPro/devkitPSP/psp/sdk/lib\libpspusb.a(sceUsb_0003.o)
 .rodata.sceNid
                0x00000000089fbc60        0x4 c:/devkitPro/devkitPSP/psp/sdk/lib\libpspusb.a(sceUsb_0006.o)
 .rodata.sceNid
                0x00000000089fbc64        0x4 c:/devkitPro/devkitPSP/psp/sdk/lib\libpspusb.a(sceUsb_0007.o)
 .rodata.sceNid
                0x00000000089fbc68        0x4 c:/devkitPro/devkitPSP/psp/sdk/lib\libpspusbstor.a(sceUsbstorBoot_0001.o)
 .rodata.sceNid
                0x00000000089fbc6c        0x4 c:/devkitPro/devkitPSP/psp/sdk/lib\libpspaudio.a(sceAudio_0002.o)
 .rodata.sceNid
                0x00000000089fbc70        0x4 c:/devkitPro/devkitPSP/psp/sdk/lib\libpspaudio.a(sceAudio_0004.o)
 .rodata.sceNid
                0x00000000089fbc74        0x4 c:/devkitPro/devkitPSP/psp/sdk/lib\libpspaudio.a(sceAudio_0005.o)
 .rodata.sceNid
                0x00000000089fbc78        0x4 c:/devkitPro/devkitPSP/psp/sdk/lib\libpspaudio.a(sceAudio_0007.o)
 .rodata.sceNid
                0x00000000089fbc7c        0x4 c:/devkitPro/devkitPSP/psp/sdk/lib\libpspaudio.a(sceAudio_0010.o)
 .rodata.sceNid
                0x00000000089fbc80        0x4 c:/devkitPro/devkitPSP/psp/sdk/lib\libpspdisplay.a(sceDisplay_0001.o)
 .rodata.sceNid
                0x00000000089fbc84        0x4 c:/devkitPro/devkitPSP/psp/sdk/lib\libpspdisplay.a(sceDisplay_0006.o)
 .rodata.sceNid
                0x00000000089fbc88        0x4 c:/devkitPro/devkitPSP/psp/sdk/lib\libpspdisplay.a(sceDisplay_0014.o)
 .rodata.sceNid
                0x00000000089fbc8c        0x4 c:/devkitPro/devkitPSP/psp/sdk/lib\libpspge.a(sceGe_user_0002.o)
 .rodata.sceNid
                0x00000000089fbc90        0x4 c:/devkitPro/devkitPSP/psp/sdk/lib\libpspge.a(sceGe_user_0008.o)
 .rodata.sceNid
                0x00000000089fbc94        0x4 c:/devkitPro/devkitPSP/psp/sdk/lib\libpspge.a(sceGe_user_0011.o)
 .rodata.sceNid
                0x00000000089fbc98        0x4 c:/devkitPro/devkitPSP/psp/sdk/lib\libpspge.a(sceGe_user_0012.o)
 .rodata.sceNid
                0x00000000089fbc9c        0x4 c:/devkitPro/devkitPSP/psp/sdk/lib\libpspge.a(sceGe_user_0013.o)
 .rodata.sceNid
                0x00000000089fbca0        0x4 c:/devkitPro/devkitPSP/psp/sdk/lib\libpspge.a(sceGe_user_0016.o)
 .rodata.sceNid
                0x00000000089fbca4        0x4 c:/devkitPro/devkitPSP/psp/sdk/lib\libpspge.a(sceGe_user_0017.o)
 .rodata.sceNid
                0x00000000089fbca8        0x4 c:/devkitPro/devkitPSP/psp/sdk/lib\libpspnet_inet.a(sceNetInet_0010.o)
 .rodata.sceNid
                0x00000000089fbcac        0x4 c:/devkitPro/devkitPSP/psp/sdk/lib\libpspnet_inet.a(sceNetInet_0020.o)
 .rodata.sceNid
                0x00000000089fbcb0        0x4 c:/devkitPro/devkitPSP/psp/sdk/lib\libpspnet_inet.a(sceNetInet_0024.o)
 .rodata.sceNid
                0x00000000089fbcb4        0x4 c:/devkitPro/devkitPSP/psp/sdk/lib\libpsputility.a(sceUtility_0031.o)
 .rodata.sceNid
                0x00000000089fbcb8        0x4 c:/devkitPro/devkitPSP/psp/sdk/lib\libpspuser.a(IoFileMgrForUser_0007.o)
 .rodata.sceNid
                0x00000000089fbcbc        0x4 c:/devkitPro/devkitPSP/psp/sdk/lib\libpspuser.a(IoFileMgrForUser_0009.o)
 .rodata.sceNid
                0x00000000089fbcc0        0x4 c:/devkitPro/devkitPSP/psp/sdk/lib\libpspuser.a(IoFileMgrForUser_0011.o)
 .rodata.sceNid
                0x00000000089fbcc4        0x4 c:/devkitPro/devkitPSP/psp/sdk/lib\libpspuser.a(IoFileMgrForUser_0013.o)
 .rodata.sceNid
                0x00000000089fbcc8        0x4 c:/devkitPro/devkitPSP/psp/sdk/lib\libpspuser.a(IoFileMgrForUser_0015.o)
 .rodata.sceNid
                0x00000000089fbccc        0x4 c:/devkitPro/devkitPSP/psp/sdk/lib\libpspuser.a(IoFileMgrForUser_0017.o)
 .rodata.sceNid
                0x00000000089fbcd0        0x4 c:/devkitPro/devkitPSP/psp/sdk/lib\libpspuser.a(IoFileMgrForUser_0021.o)
 .rodata.sceNid
                0x00000000089fbcd4        0x4 c:/devkitPro/devkitPSP/psp/sdk/lib\libpspuser.a(IoFileMgrForUser_0022.o)
 .rodata.sceNid
                0x00000000089fbcd8        0x4 c:/devkitPro/devkitPSP/psp/sdk/lib\libpspuser.a(IoFileMgrForUser_0023.o)
 .rodata.sceNid
                0x00000000089fbcdc        0x4 c:/devkitPro/devkitPSP/psp/sdk/lib\libpspuser.a(IoFileMgrForUser_0024.o)
 .rodata.sceNid
                0x00000000089fbce0        0x4 c:/devkitPro/devkitPSP/psp/sdk/lib\libpspuser.a(IoFileMgrForUser_0025.o)
 .rodata.sceNid
                0x00000000089fbce4        0x4 c:/devkitPro/devkitPSP/psp/sdk/lib\libpspuser.a(IoFileMgrForUser_0027.o)
 .rodata.sceNid
                0x00000000089fbce8        0x4 c:/devkitPro/devkitPSP/psp/sdk/lib\libpspuser.a(IoFileMgrForUser_0029.o)
 .rodata.sceNid
                0x00000000089fbcec        0x4 c:/devkitPro/devkitPSP/psp/sdk/lib\libpspuser.a(ModuleMgrForUser_0002.o)
 .rodata.sceNid
                0x00000000089fbcf0        0x4 c:/devkitPro/devkitPSP/psp/sdk/lib\libpspuser.a(ModuleMgrForUser_0005.o)
 .rodata.sceNid
                0x00000000089fbcf4        0x4 c:/devkitPro/devkitPSP/psp/sdk/lib\libpspuser.a(ModuleMgrForUser_0008.o)
 .rodata.sceNid
                0x00000000089fbcf8        0x4 c:/devkitPro/devkitPSP/psp/sdk/lib\libpspuser.a(StdioForUser_0007.o)
 .rodata.sceNid
                0x00000000089fbcfc        0x4 c:/devkitPro/devkitPSP/psp/sdk/lib\libpspuser.a(StdioForUser_0008.o)
 .rodata.sceNid
                0x00000000089fbd00        0x4 c:/devkitPro/devkitPSP/psp/sdk/lib\libpspuser.a(StdioForUser_0009.o)
 .rodata.sceNid
                0x00000000089fbd04        0x4 c:/devkitPro/devkitPSP/psp/sdk/lib\libpspuser.a(SysMemUserForUser_0001.o)
 .rodata.sceNid
                0x00000000089fbd08        0x4 c:/devkitPro/devkitPSP/psp/sdk/lib\libpspuser.a(SysMemUserForUser_0003.o)
 .rodata.sceNid
                0x00000000089fbd0c        0x4 c:/devkitPro/devkitPSP/psp/sdk/lib\libpspuser.a(SysMemUserForUser_0004.o)
 .rodata.sceNid
                0x00000000089fbd10        0x4 c:/devkitPro/devkitPSP/psp/sdk/lib\libpspuser.a(SysMemUserForUser_0005.o)
 .rodata.sceNid
                0x00000000089fbd14        0x4 c:/devkitPro/devkitPSP/psp/sdk/lib\libpspuser.a(ThreadManForUser_0005.o)
 .rodata.sceNid
                0x00000000089fbd18        0x4 c:/devkitPro/devkitPSP/psp/sdk/lib\libpspuser.a(ThreadManForUser_0013.o)
 .rodata.sceNid
                0x00000000089fbd1c        0x4 c:/devkitPro/devkitPSP/psp/sdk/lib\libpspuser.a(ThreadManForUser_0018.o)
 .rodata.sceNid
                0x00000000089fbd20        0x4 c:/devkitPro/devkitPSP/psp/sdk/lib\libpspuser.a(ThreadManForUser_0032.o)
 .rodata.sceNid
                0x00000000089fbd24        0x4 c:/devkitPro/devkitPSP/psp/sdk/lib\libpspuser.a(ThreadManForUser_0033.o)
 .rodata.sceNid
                0x00000000089fbd28        0x4 c:/devkitPro/devkitPSP/psp/sdk/lib\libpspuser.a(ThreadManForUser_0034.o)
 .rodata.sceNid
                0x00000000089fbd2c        0x4 c:/devkitPro/devkitPSP/psp/sdk/lib\libpspuser.a(ThreadManForUser_0049.o)
 .rodata.sceNid
                0x00000000089fbd30        0x4 c:/devkitPro/devkitPSP/psp/sdk/lib\libpspuser.a(ThreadManForUser_0050.o)
 .rodata.sceNid
                0x00000000089fbd34        0x4 c:/devkitPro/devkitPSP/psp/sdk/lib\libpspuser.a(ThreadManForUser_0051.o)
 .rodata.sceNid
                0x00000000089fbd38        0x4 c:/devkitPro/devkitPSP/psp/sdk/lib\libpspuser.a(ThreadManForUser_0053.o)
 .rodata.sceNid
                0x00000000089fbd3c        0x4 c:/devkitPro/devkitPSP/psp/sdk/lib\libpspuser.a(ThreadManForUser_0054.o)
 .rodata.sceNid
                0x00000000089fbd40        0x4 c:/devkitPro/devkitPSP/psp/sdk/lib\libpspuser.a(ThreadManForUser_0056.o)
 .rodata.sceNid
                0x00000000089fbd44        0x4 c:/devkitPro/devkitPSP/psp/sdk/lib\libpspuser.a(ThreadManForUser_0058.o)
 .rodata.sceNid
                0x00000000089fbd48        0x4 c:/devkitPro/devkitPSP/psp/sdk/lib\libpspuser.a(ThreadManForUser_0101.o)
 .rodata.sceNid
                0x00000000089fbd4c        0x4 c:/devkitPro/devkitPSP/psp/sdk/lib\libpspuser.a(ThreadManForUser_0102.o)
 .rodata.sceNid
                0x00000000089fbd50        0x4 c:/devkitPro/devkitPSP/psp/sdk/lib\libpspuser.a(ThreadManForUser_0103.o)
 .rodata.sceNid
                0x00000000089fbd54        0x4 c:/devkitPro/devkitPSP/psp/sdk/lib\libpspuser.a(ThreadManForUser_0105.o)
 .rodata.sceNid
                0x00000000089fbd58        0x4 c:/devkitPro/devkitPSP/psp/sdk/lib\libpspuser.a(ThreadManForUser_0106.o)
 .rodata.sceNid
                0x00000000089fbd5c        0x4 c:/devkitPro/devkitPSP/psp/sdk/lib\libpspuser.a(UtilsForUser_0014.o)
 .rodata.sceNid
                0x00000000089fbd60        0x4 c:/devkitPro/devkitPSP/psp/sdk/lib\libpspuser.a(UtilsForUser_0015.o)
 .rodata.sceNid
                0x00000000089fbd64        0x4 c:/devkitPro/devkitPSP/psp/sdk/lib\libpspuser.a(UtilsForUser_0016.o)
 .rodata.sceNid
                0x00000000089fbd68        0x4 c:/devkitPro/devkitPSP/psp/sdk/lib\libpspuser.a(UtilsForUser_0018.o)
 .rodata.sceNid
                0x00000000089fbd6c        0x4 c:/devkitPro/devkitPSP/psp/sdk/lib\libpspuser.a(UtilsForUser_0020.o)
 .rodata.sceNid
                0x00000000089fbd70        0x4 c:/devkitPro/devkitPSP/psp/sdk/lib\libpspuser.a(InterruptManager_0001.o)
 .rodata.sceNid
                0x00000000089fbd74        0x4 c:/devkitPro/devkitPSP/psp/sdk/lib\libpspuser.a(InterruptManager_0003.o)
 .rodata.sceNid
                0x00000000089fbd78        0x4 c:/devkitPro/devkitPSP/psp/sdk/lib\libpspuser.a(LoadExecForUser_0003.o)
 .rodata.sceNid
                0x00000000089fbd7c        0x4 c:/devkitPro/devkitPSP/psp/sdk/lib\libpspuser.a(LoadExecForUser_0004.o)

.rodata.sceVstub
 *(.rodata.sceVstub)
 *(SORT(.rodata.sceVstub.*))

.rodata         0x00000000089fbd80    0x156ac
 *(.rodata .rodata.* .gnu.linkonce.r.*)
 .rodata.str1.4
                0x00000000089fbd80        0xa c:/devkitpro/devkitpsp/bin/../lib/gcc/psp/4.1.2/../../../../psp/lib/crt0.o
                                          0xc (size before relaxing)
 *fill*         0x00000000089fbd8a        0x2 00
 .rodata        0x00000000089fbd8c      0x500 gbcore/apu.o
 .rodata.str1.4
                0x00000000089fc28c        0x7 gbcore/cpu.o
                                          0x8 (size before relaxing)
 *fill*         0x00000000089fc293        0x1 00
 .rodata        0x00000000089fc294      0xdb4 gbcore/cpu.o
 .rodata.str1.4
                0x00000000089fd048       0x13 gbcore/gb.o
                                         0x14 (size before relaxing)
 *fill*         0x00000000089fd05b        0x1 00
 .rodata        0x00000000089fd05c       0x30 gbcore/gb.o
 .rodata        0x00000000089fd08c      0x230 gbcore/lcd.o
                0x00000000089fd08c                defaultPalCache
 .rodata        0x00000000089fd2bc       0x50 gbcore/mbc.o
 .rodata        0x00000000089fd30c       0xc8 gbcore/rom.o
 .rodata.cst4   0x00000000089fd3d4        0x4 gbcore/sgb.o
 .rodata        0x00000000089fd3d8      0x164 gbcore/sgb.o
                0x00000000089fd438                CYCLES_SGB_TIMEOUT
                0x00000000089fd43c                tile_signed_trans
 .rodata        0x00000000089fd53c     0x3400 cpu/z80.o
 .rodata        0x0000000008a0093c       0x34 pio.o
 .rodata.cst4   0x0000000008a00970        0x4 render.o
 .rodata        0x0000000008a00974       0x40 render.o
 .rodata        0x0000000008a009b4        0xc system.o
 .rodata.cst4   0x0000000008a009c0        0x8 sound/sn76489.o
 .rodata        0x0000000008a009c8       0x80 sound/sn76489.o
 .rodata.cst8   0x0000000008a00a48       0xb0 sound/emu2413.o
 .rodata        0x0000000008a00af8      0x458 sound/emu2413.o
 .rodata        0x0000000008a00f50      0x56c sound/ym2413.o
 *fill*         0x0000000008a014bc        0x4 00
 .rodata.cst8   0x0000000008a014c0       0x58 sound/ym2413.o
                                         0x70 (size before relaxing)
 .rodata        0x0000000008a01518       0x3c psp/gameboy_render.o
 .rodata        0x0000000008a01554       0x54 psp/VideoGu.o
 .rodata.str1.4
                0x0000000008a015a8       0x16 psp/VideoGu.o
                                         0x18 (size before relaxing)
 *fill*         0x0000000008a015be        0x2 00
 .rodata.cst4   0x0000000008a015c0        0x4 psp/VideoGu.o
 .rodata.str1.4
                0x0000000008a015c4        0xc psp/PspSound.o
 .rodata.str1.4
                0x0000000008a015d0       0xf8 psp/SMS.o
 .rodata.cst4   0x0000000008a016c8       0x10 psp/SMS.o
 .rodata.cst8   0x0000000008a016d8        0x8 psp/SMS.o
 .rodata        0x0000000008a016e0       0x30 psp/SMS.o
 .rodata.cst4   0x0000000008a01710      0x104 psp/menuplus.o
 .rodata.str1.4
                0x0000000008a01814     0x1fee psp/menuplus.o
                                       0x2060 (size before relaxing)
 *fill*         0x0000000008a03802        0x2 00
 .rodata        0x0000000008a03804       0xb0 psp/menuplus.o
 .rodata.str1.4
                0x0000000008a038b4      0x336 psp/menuplus2.o
                                        0x380 (size before relaxing)
 *fill*         0x0000000008a03bea        0x2 00
 .rodata        0x0000000008a03bec       0x14 psp/menuplus2.o
 .rodata.str1.4
                0x0000000008a03c00      0x51e psp/config.o
                                        0x554 (size before relaxing)
 *fill*         0x0000000008a0411e        0x2 00
 .rodata        0x0000000008a04120      0x4d8 psp/config.o
                0x0000000008a04190                objVideo
                0x0000000008a04330                objCtrl
                0x0000000008a044e0                objets
                0x0000000008a04390                objMenu
                0x0000000008a042f0                objCtrlAnalog
                0x0000000008a04480                objColorIt
                0x0000000008a04290                objSound
                0x0000000008a04370                objMisc
                0x0000000008a04450                objGameBoy
                0x0000000008a04410                objMusic
                0x0000000008a04150                objFile
 .rodata.cst4   0x0000000008a045f8        0x4 psp/config.o
 .rodata.str1.4
                0x0000000008a045fc       0xa3 psp/usb.o
                                         0xa4 (size before relaxing)
 *fill*         0x0000000008a0469f        0x1 00
 .rodata.str1.4
                0x0000000008a046a0      0x141 psp/sound.o
                                        0x164 (size before relaxing)
 *fill*         0x0000000008a047e1        0x3 00
 .rodata        0x0000000008a047e4       0x20 psp/sound.o
 .rodata.str1.4
                0x0000000008a04804       0x38 fileio.o
 .rodata        0x0000000008a0483c       0x1c fileio.o
 .rodata        0x0000000008a04858        0x8 state.o
 .rodata.str1.4
                0x0000000008a04860      0x1e1 loadrom.o
                                        0x210 (size before relaxing)
 *fill*         0x0000000008a04a41        0x3 00
 .rodata        0x0000000008a04a44       0x10 loadrom.o
 .rodata.str1.4
                0x0000000008a04a54        0x7 unzip/ioapi.o
                                          0xc (size before relaxing)
 *fill*         0x0000000008a04a5b        0x1 00
 .rodata.str1.4
                0x0000000008a04a5c        0x6 unzip/unzip.o
                                          0x8 (size before relaxing)
 *fill*         0x0000000008a04a62        0x2 00
 .rodata        0x0000000008a04a64       0x54 unzip/unzip.o
                0x0000000008a04a64                unz_copyright
 .rodata.str1.4
                0x0000000008a04ab8       0xf8 psp/gym/gym.o
 .rodata.cst4   0x0000000008a04bb0       0x10 psp/gym/gym.o
                                         0x1c (size before relaxing)
 .rodata.cst8   0x0000000008a04bc0       0x10 psp/gym/gym.o
                                         0x18 (size before relaxing)
 .rodata._ZTVN9CODEC_GYM9input_gymE
                0x0000000008a04bd0       0x20 psp/gym/gym.o
                0x0000000008a04bd0                vtable for CODEC_GYM::input_gym
 .rodata        0x0000000008a04bf0       0x20 psp/gym/gym.o
 .rodata.cst8   0x0000000008a04c10        0x0 psp/gym/gym_play.o
                                          0x8 (size before relaxing)
 .rodata.cst8   0x0000000008a04c10       0x10 psp/gym/psg.o
                                         0x30 (size before relaxing)
 .rodata        0x0000000008a04c20      0x2ec psp/gym/ym2612.o
                0x0000000008a04c9c                DT_DEF_TAB
                0x0000000008a04eec                LFO_FMS_TAB
                0x0000000008a04edc                LFO_AMS_TAB
                0x0000000008a04e9c                FKEY_TAB
 *fill*         0x0000000008a04f0c        0x4 00
 .rodata.cst8   0x0000000008a04f10       0x98 psp/gym/ym2612.o
                                         0xe8 (size before relaxing)
 .rodata.str1.4
                0x0000000008a04fa8      0x14e psp/gym/bzlib/blocksort.o
                                        0x150 (size before relaxing)
 *fill*         0x0000000008a050f6        0x2 00
 .rodata.cst4   0x0000000008a050f8        0x4 psp/gym/bzlib/blocksort.o
 .rodata        0x0000000008a050fc       0x38 psp/gym/bzlib/blocksort.o
 .rodata.str1.4
                0x0000000008a05134      0x6c8 psp/gym/bzlib/bzlib.o
                                        0x6d0 (size before relaxing)
 .rodata        0x0000000008a057fc       0x4c psp/gym/bzlib/bzlib.o
 .rodata.str1.4
                0x0000000008a05848      0x156 psp/gym/bzlib/compress.o
                                        0x158 (size before relaxing)
 *fill*         0x0000000008a0599e        0x2 00
 .rodata.cst8   0x0000000008a059a0        0x8 psp/gym/bzlib/compress.o
 .rodata.str1.4
                0x0000000008a059a8       0x1b psp/gym/bzlib/decompress.o
                                         0x1c (size before relaxing)
 *fill*         0x0000000008a059c3        0x1 00
 .rodata        0x0000000008a059c4       0xa4 psp/gym/bzlib/decompress.o
 .rodata        0x0000000008a05a68      0x128 psp/vgm/mame_fm.o
 .rodata.cst8   0x0000000008a05b90       0x28 psp/vgm/mame_fm.o
                                         0xb0 (size before relaxing)
 .rodata.str1.4
                0x0000000008a05bb8       0x1f psp/vgm/mame_fm.o
                                         0x20 (size before relaxing)
 *fill*         0x0000000008a05bd7        0x1 00
 .rodata.cst8   0x0000000008a05bd8       0x50 psp/vgm/emu2413.o
                                         0xf8 (size before relaxing)
 .rodata        0x0000000008a05c28      0x138 psp/vgm/emu2413.o
 .rodata.cst4   0x0000000008a05d60        0x4 psp/vgm/sn76489.o
                                          0xc (size before relaxing)
 .rodata        0x0000000008a05d64       0x80 psp/vgm/sn76489.o
 .rodata        0x0000000008a05de4      0x71c psp/vgm/mame_ym2151.o
 .rodata.cst8   0x0000000008a06500       0x10 psp/vgm/mame_ym2151.o
                                         0x98 (size before relaxing)
 .rodata.cst8   0x0000000008a06510       0x20 psp/vgm/In_vgm.o
                                         0x40 (size before relaxing)
 .rodata.str1.4
                0x0000000008a06530       0x5d psp/vgm/In_vgm.o
                                         0xc4 (size before relaxing)
 *fill*         0x0000000008a0658d        0x3 00
 .rodata.cst4   0x0000000008a06590        0x4 psp/vgm/In_vgm.o
 .rodata        0x0000000008a06594      0x248 psp/vgm/In_vgm.o
 .rodata.str1.4
                0x0000000008a067dc        0x4 psp/gz.o
                                          0xc (size before relaxing)
 .rodata        0x0000000008a067e0        0xc psp/gz.o
 .rodata.str1.4
                0x0000000008a067ec        0x0 psp/VirtualGz.o
                                          0x8 (size before relaxing)
 .rodata.str1.4
                0x0000000008a067ec       0x9a psp/deflate.o
                                         0x9c (size before relaxing)
 *fill*         0x0000000008a06886        0x2 00
 .rodata        0x0000000008a06888       0xb0 psp/deflate.o
                0x0000000008a06888                deflate_copyright
 .rodata.str1.4
                0x0000000008a06938       0x2c psp/gzio.o
                                         0x30 (size before relaxing)
 .rodata.str1.4
                0x0000000008a06964       0x4c c:/devkitPro/devkitPSP/psp/sdk/lib\libosl.a(oslib.o)
 .rodata.cst4   0x0000000008a069b0        0x4 c:/devkitPro/devkitPSP/psp/sdk/lib\libosl.a(oslib.o)
 .rodata.cst4   0x0000000008a069b4        0x8 c:/devkitPro/devkitPSP/psp/sdk/lib\libosl.a(drawing.o)
 .rodata        0x0000000008a069bc       0x20 c:/devkitPro/devkitPSP/psp/sdk/lib\libosl.a(drawing.o)
                0x0000000008a069bc                osl_pixelWidth
                0x0000000008a069d4                osl_paletteSizes
 .rodata.str1.4
                0x0000000008a069dc       0x46 c:/devkitPro/devkitPSP/psp/sdk/lib\libosl.a(image.o)
                                         0x54 (size before relaxing)
 *fill*         0x0000000008a06a22        0x2 00
 .rodata.str1.4
                0x0000000008a06a24       0x2c c:/devkitPro/devkitPSP/psp/sdk/lib\libosl.a(messagebox.o)
 .rodata        0x0000000008a06a50       0x30 c:/devkitPro/devkitPSP/psp/sdk/lib\libosl.a(messagebox.o)
 .rodata.cst4   0x0000000008a06a80        0x4 c:/devkitPro/devkitPSP/psp/sdk/lib\libosl.a(vfpu.o)
                                          0x8 (size before relaxing)
 .rodata.str1.4
                0x0000000008a06a84        0xc c:/devkitPro/devkitPSP/psp/sdk/lib\libosl.a(text.o)
 .rodata        0x0000000008a06a90      0x81c c:/devkitPro/devkitPSP/psp/sdk/lib\libosl.a(text.o)
                0x0000000008a06a90                osl_sceFont_data
 .rodata.cst4   0x0000000008a072ac        0x4 c:/devkitPro/devkitPSP/psp/sdk/lib\libosl.a(vram_mgr.o)
 .rodata.str1.4
                0x0000000008a072b0       0x4c c:/devkitPro/devkitPSP/psp/sdk/lib\libosl.a(audio.o)
                                         0x60 (size before relaxing)
 .rodata.str1.4
                0x0000000008a072fc        0xb c:/devkitPro/devkitPSP/psp/sdk/lib\libosl.a(bgm.o)
                                          0xc (size before relaxing)
 *fill*         0x0000000008a07307        0x1 00
 .rodata        0x0000000008a07308       0xc4 c:/devkitPro/devkitPSP/psp/sdk/lib\libosl.a(bgm.o)
                0x0000000008a07308                ima_step_table
 .rodata.str1.4
                0x0000000008a073cc        0x6 c:/devkitPro/devkitPSP/psp/sdk/lib\libosl.a(VirtualFile.o)
                                          0x8 (size before relaxing)
 *fill*         0x0000000008a073d2        0x2 00
 .rodata.cst4   0x0000000008a073d4       0x10 c:/devkitPro/devkitPSP/psp/sdk/lib\libosl.a(oslDrawImage.o)
 .rodata.str1.4
                0x0000000008a073e4       0x49 c:/devkitPro/devkitPSP/psp/sdk/lib\libosl.a(oslSwizzleImage.o)
                                         0x58 (size before relaxing)
 *fill*         0x0000000008a0742d        0x3 00
 .rodata.str1.4
                0x0000000008a07430        0x6 c:/devkitPro/devkitPSP/psp/sdk/lib\libosl.a(oslWriteImageFilePNG.o)
                                          0x8 (size before relaxing)
 *fill*         0x0000000008a07436        0x2 00
 .rodata.str1.4
                0x0000000008a07438        0xd c:/devkitPro/devkitPSP/psp/sdk/lib\libosl.a(oslLoadImageFile.o)
                                         0x18 (size before relaxing)
 *fill*         0x0000000008a07445        0x3 00
 .rodata.str1.4
                0x0000000008a07448       0x29 c:/devkitPro/devkitPSP/psp/sdk/lib\libosl.a(oslShowSplashScreen1.o)
                                         0x2c (size before relaxing)
 *fill*         0x0000000008a07471        0x3 00
 .rodata.cst4   0x0000000008a07474       0x34 c:/devkitPro/devkitPSP/psp/sdk/lib\libosl.a(oslShowSplashScreen1.o)
                                         0x3c (size before relaxing)
 .rodata        0x0000000008a074a8      0xd48 c:/devkitPro/devkitPSP/psp/sdk/lib\libosl.a(oslShowSplashScreen1.o)
                0x0000000008a081b0                __osl_logo_ram_files
                0x0000000008a080a4                __osl_logo_etoile_data
                0x0000000008a074a8                __osl_logo_texte_data
 .rodata.str1.4
                0x0000000008a081f0       0x12 c:/devkitPro/devkitPSP/psp/sdk/lib\libosl.a(oslShowSplashScreen2.o)
                                         0x14 (size before relaxing)
 *fill*         0x0000000008a08202        0x2 00
 .rodata.cst4   0x0000000008a08204       0x1c c:/devkitPro/devkitPSP/psp/sdk/lib\libosl.a(oslShowSplashScreen2.o)
                                         0x28 (size before relaxing)
 .rodata.str1.4
                0x0000000008a08220       0x6e c:/devkitPro/devkitPSP/psp/sdk/lib\libosl.a(oslHandleLoadNoFailError.o)
                                         0x7c (size before relaxing)
 .rodata.str1.4
                0x0000000008a0828e        0x0 c:/devkitPro/devkitPSP/psp/sdk/lib\libosl.a(oslLoadImageFilePNG.o)
                                          0x8 (size before relaxing)
 *fill*         0x0000000008a0828e        0x2 00
 .rodata        0x0000000008a08290       0x1c c:/devkitPro/devkitPSP/psp/sdk/lib\libosl.a(oslLoadImageFilePNG.o)
 .rodata.cst4   0x0000000008a082ac        0x8 c:/devkitPro/devkitPSP/psp/sdk/lib\libosl.a(oslLoadImageFileGIF.o)
 .rodata        0x0000000008a082b4       0x10 c:/devkitPro/devkitPSP/psp/sdk/lib\libosl.a(oslLoadImageFileGIF.o)
                0x0000000008a082bc                InterlacedJumps
                0x0000000008a082b4                InterlacedOffset
 .rodata        0x0000000008a082c4       0x18 c:/devkitPro/devkitPSP/psp/sdk/lib\libosl.a(oslSetImagePixel.o)
 .rodata        0x0000000008a082dc       0x18 c:/devkitPro/devkitPSP/psp/sdk/lib\libosl.a(oslGetImagePixel.o)
 .rodata        0x0000000008a082f4      0x29c c:/devkitPro/devkitPSP/psp/sdk/lib\libosl.a(gba-jpeg-decode.o)
                0x0000000008a08530                JPEG_ComponentRange
                0x0000000008a08430                JPEG_AANScaleFactor
                0x0000000008a083f0                JPEG_ToZigZag
 .rodata        0x0000000008a08590       0x1c c:/devkitPro/devkitPSP/psp/sdk/lib\libosl.a(dgif_lib.o)
 .rodata        0x0000000008a085ac       0xec c:/devkitPro/devkitPSP/psp/sdk/lib\libpng.a(png.o)
                0x0000000008a08600                png_pass_ystart
                0x0000000008a08638                png_pass_start
                0x0000000008a085ac                png_pass_dsp_mask
                0x0000000008a085c8                png_pass_mask
                0x0000000008a0861c                png_pass_inc
                0x0000000008a085e4                png_pass_yinc
                0x0000000008a08654                png_libpng_ver
 .rodata.str1.4
                0x0000000008a08698      0x18b c:/devkitPro/devkitPSP/psp/sdk/lib\libpng.a(png.o)
                                        0x194 (size before relaxing)
 *fill*         0x0000000008a08823        0x1 00
 .rodata        0x0000000008a08824       0x10 c:/devkitPro/devkitPSP/psp/sdk/lib\libpng.a(pngerror.o)
 .rodata.str1.4
                0x0000000008a08834       0x7e c:/devkitPro/devkitPSP/psp/sdk/lib\libpng.a(pngerror.o)
                                         0x80 (size before relaxing)
 *fill*         0x0000000008a088b2        0x2 00
 .rodata.str1.4
                0x0000000008a088b4        0xf c:/devkitPro/devkitPSP/psp/sdk/lib\libpng.a(pngmem.o)
                                         0x10 (size before relaxing)
 *fill*         0x0000000008a088c3        0x1 00
 .rodata.str1.4
                0x0000000008a088c4      0x351 c:/devkitPro/devkitPSP/psp/sdk/lib\libpng.a(pngread.o)
                                        0x35c (size before relaxing)
 *fill*         0x0000000008a08c15        0x3 00
 .rodata        0x0000000008a08c18       0x1c c:/devkitPro/devkitPSP/psp/sdk/lib\libpng.a(pngread.o)
 .rodata.str1.4
                0x0000000008a08c34       0x9e c:/devkitPro/devkitPSP/psp/sdk/lib\libpng.a(pngrio.o)
                                         0xa0 (size before relaxing)
 *fill*         0x0000000008a08cd2        0x2 00
 .rodata.str1.4
                0x0000000008a08cd4      0x102 c:/devkitPro/devkitPSP/psp/sdk/lib\libpng.a(pngrtran.o)
                                        0x104 (size before relaxing)
 *fill*         0x0000000008a08dd6        0x2 00
 .rodata        0x0000000008a08dd8       0x88 c:/devkitPro/devkitPSP/psp/sdk/lib\libpng.a(pngrtran.o)
 .rodata.str1.4
                0x0000000008a08e60      0xee6 c:/devkitPro/devkitPSP/psp/sdk/lib\libpng.a(pngrutil.o)
                                        0xf18 (size before relaxing)
 *fill*         0x0000000008a09d46        0x2 00
 .rodata        0x0000000008a09d48       0x30 c:/devkitPro/devkitPSP/psp/sdk/lib\libpng.a(pngrutil.o)
 .rodata.str1.4
                0x0000000008a09d78      0x48c c:/devkitPro/devkitPSP/psp/sdk/lib\libpng.a(pngset.o)
 .rodata.str1.4
                0x0000000008a0a204       0x95 c:/devkitPro/devkitPSP/psp/sdk/lib\libpng.a(pngwio.o)
                                         0x98 (size before relaxing)
 *fill*         0x0000000008a0a299        0x3 00
 .rodata.str1.4
                0x0000000008a0a29c      0x312 c:/devkitPro/devkitPSP/psp/sdk/lib\libpng.a(pngwrite.o)
                                        0x410 (size before relaxing)
 *fill*         0x0000000008a0a5ae        0x2 00
 .rodata        0x0000000008a0a5b0       0x3c c:/devkitPro/devkitPSP/psp/sdk/lib\libpng.a(pngwrite.o)
 .rodata.str1.4
                0x0000000008a0a5ec      0x786 c:/devkitPro/devkitPSP/psp/sdk/lib\libpng.a(pngwutil.o)
                                        0x7c8 (size before relaxing)
 *fill*         0x0000000008a0ad72        0x2 00
 .rodata        0x0000000008a0ad74       0x1c c:/devkitPro/devkitPSP/psp/sdk/lib\libpng.a(pngwutil.o)
 .rodata.str1.4
                0x0000000008a0ad90       0x86 c:/devkitPro/devkitPSP/psp/sdk/lib\libpng.a(pngget.o)
                                         0x88 (size before relaxing)
 .rodata.str1.4
                0x0000000008a0ae16        0x0 c:/devkitPro/devkitPSP/psp/sdk/lib\libz.a(compress.o)
                                          0x8 (size before relaxing)
 *fill*         0x0000000008a0ae16        0x2 00
 .rodata        0x0000000008a0ae18     0x2000 c:/devkitPro/devkitPSP/psp/sdk/lib\libz.a(crc32.o)
 .rodata        0x0000000008a0ce18      0x91c c:/devkitPro/devkitPSP/psp/sdk/lib\libz.a(inflate.o)
 .rodata.str1.4
                0x0000000008a0d734      0x1bf c:/devkitPro/devkitPSP/psp/sdk/lib\libz.a(inflate.o)
                                        0x1c0 (size before relaxing)
 *fill*         0x0000000008a0d8f3        0x1 00
 .rodata        0x0000000008a0d8f4      0x130 c:/devkitPro/devkitPSP/psp/sdk/lib\libz.a(inftrees.o)
                0x0000000008a0d8f4                inflate_copyright
 .rodata        0x0000000008a0da24      0xa30 c:/devkitPro/devkitPSP/psp/sdk/lib\libz.a(trees.o)
                0x0000000008a0da24                _length_code
                0x0000000008a0db24                _dist_code
 .rodata.str1.4
                0x0000000008a0e454        0x0 c:/devkitPro/devkitPSP/psp/sdk/lib\libz.a(uncompr.o)
                                          0x8 (size before relaxing)
 .rodata.str1.4
                0x0000000008a0e454       0x7f c:/devkitPro/devkitPSP/psp/sdk/lib\libz.a(zutil.o)
                                         0x8c (size before relaxing)
 *fill*         0x0000000008a0e4d3        0x1 00
 .rodata        0x0000000008a0e4d4       0x28 c:/devkitPro/devkitPSP/psp/sdk/lib\libz.a(zutil.o)
                0x0000000008a0e4d4                z_errmsg
 .rodata.str1.4
                0x0000000008a0e4fc        0x0 c:/devkitPro/devkitPSP/psp/sdk/lib\libz.a(inffast.o)
                                         0x54 (size before relaxing)
 .rodata        0x0000000008a0e4fc       0x58 c:/devkitPro/devkitPSP/psp/sdk/lib\libpspgu.a(sceGuDisable.o)
 .rodata        0x0000000008a0e554       0x58 c:/devkitPro/devkitPSP/psp/sdk/lib\libpspgu.a(sceGuEnable.o)
 .rodata.str1.4
                0x0000000008a0e5ac        0xc c:/devkitPro/devkitPSP/psp/sdk/lib\libpspgu.a(sceGuInit.o)
 .rodata.cst4   0x0000000008a0e5b8        0x0 c:/devkitPro/devkitPSP/psp/sdk/lib\libpspgu.a(sceGuStart.o)
                                          0x4 (size before relaxing)
 .rodata        0x0000000008a0e5b8       0x60 c:/devkitPro/devkitPSP/psp/sdk/lib\libpspgu.a(sceGuTexImage.o)
 .rodata        0x0000000008a0e618       0x34 c:/devkitpro/devkitpsp/bin/../lib/gcc/psp/4.1.2/../../../../psp/lib\libstdc++.a(eh_personality.o)
 .rodata.str1.4
                0x0000000008a0e64c       0x92 c:/devkitpro/devkitpsp/bin/../lib/gcc/psp/4.1.2/../../../../psp/lib\libstdc++.a(vterminate.o)
                                         0x94 (size before relaxing)
 *fill*         0x0000000008a0e6de        0x2 00
 .rodata        0x0000000008a0e6e0      0xad4 c:/devkitpro/devkitpsp/bin/../lib/gcc/psp/4.1.2/../../../../psp/lib\libstdc++.a(cp-demangle.o)
 .rodata.str1.4
                0x0000000008a0f1b4      0x5a0 c:/devkitpro/devkitpsp/bin/../lib/gcc/psp/4.1.2/../../../../psp/lib\libstdc++.a(cp-demangle.o)
                                        0x630 (size before relaxing)
 *fill*         0x0000000008a0f754        0x4 00
 .rodata._ZTVSt13bad_exception
                0x0000000008a0f758       0x18 c:/devkitpro/devkitpsp/bin/../lib/gcc/psp/4.1.2/../../../../psp/lib\libstdc++.a(eh_exception.o)
                0x0000000008a0f758                vtable for std::bad_exception
 .rodata._ZTVSt9exception
                0x0000000008a0f770       0x18 c:/devkitpro/devkitpsp/bin/../lib/gcc/psp/4.1.2/../../../../psp/lib\libstdc++.a(eh_exception.o)
                0x0000000008a0f770                vtable for std::exception
 .rodata._ZTSSt13bad_exception
                0x0000000008a0f788       0x14 c:/devkitpro/devkitpsp/bin/../lib/gcc/psp/4.1.2/../../../../psp/lib\libstdc++.a(eh_exception.o)
                0x0000000008a0f788                typeinfo name for std::bad_exception
 .rodata._ZTISt13bad_exception
                0x0000000008a0f79c        0xc c:/devkitpro/devkitpsp/bin/../lib/gcc/psp/4.1.2/../../../../psp/lib\libstdc++.a(eh_exception.o)
                0x0000000008a0f79c                typeinfo for std::bad_exception
 .rodata._ZTSSt9exception
                0x0000000008a0f7a8       0x10 c:/devkitpro/devkitpsp/bin/../lib/gcc/psp/4.1.2/../../../../psp/lib\libstdc++.a(eh_exception.o)
                0x0000000008a0f7a8                typeinfo name for std::exception
 .rodata._ZTISt9exception
                0x0000000008a0f7b8        0x8 c:/devkitpro/devkitpsp/bin/../lib/gcc/psp/4.1.2/../../../../psp/lib\libstdc++.a(eh_exception.o)
                0x0000000008a0f7b8                typeinfo for std::exception
 .rodata        0x0000000008a0f7c0        0x4 c:/devkitpro/devkitpsp/bin/../lib/gcc/psp/4.1.2/../../../../psp/lib\libstdc++.a(new_handler.o)
                0x0000000008a0f7c0                std::nothrow
 *fill*         0x0000000008a0f7c4        0x4 00
 .rodata._ZTVSt9bad_alloc
                0x0000000008a0f7c8       0x18 c:/devkitpro/devkitpsp/bin/../lib/gcc/psp/4.1.2/../../../../psp/lib\libstdc++.a(new_handler.o)
                0x0000000008a0f7c8                vtable for std::bad_alloc
 .rodata._ZTSSt9bad_alloc
                0x0000000008a0f7e0       0x10 c:/devkitpro/devkitpsp/bin/../lib/gcc/psp/4.1.2/../../../../psp/lib\libstdc++.a(new_handler.o)
                0x0000000008a0f7e0                typeinfo name for std::bad_alloc
 .rodata._ZTISt9bad_alloc
                0x0000000008a0f7f0        0xc c:/devkitpro/devkitpsp/bin/../lib/gcc/psp/4.1.2/../../../../psp/lib\libstdc++.a(new_handler.o)
                0x0000000008a0f7f0                typeinfo for std::bad_alloc
 *fill*         0x0000000008a0f7fc        0x4 00
 .rodata._ZTVN10__cxxabiv121__vmi_class_type_infoE
                0x0000000008a0f800       0x30 c:/devkitpro/devkitpsp/bin/../lib/gcc/psp/4.1.2/../../../../psp/lib\libstdc++.a(tinfo.o)
                0x0000000008a0f800                vtable for __cxxabiv1::__vmi_class_type_info
 .rodata._ZTVN10__cxxabiv120__si_class_type_infoE
                0x0000000008a0f830       0x30 c:/devkitpro/devkitpsp/bin/../lib/gcc/psp/4.1.2/../../../../psp/lib\libstdc++.a(tinfo.o)
                0x0000000008a0f830                vtable for __cxxabiv1::__si_class_type_info
 .rodata._ZTVN10__cxxabiv117__class_type_infoE
                0x0000000008a0f860       0x30 c:/devkitpro/devkitpsp/bin/../lib/gcc/psp/4.1.2/../../../../psp/lib\libstdc++.a(tinfo.o)
                0x0000000008a0f860                vtable for __cxxabiv1::__class_type_info
 .rodata._ZTVSt10bad_typeid
                0x0000000008a0f890       0x18 c:/devkitpro/devkitpsp/bin/../lib/gcc/psp/4.1.2/../../../../psp/lib\libstdc++.a(tinfo.o)
                0x0000000008a0f890                vtable for std::bad_typeid
 .rodata._ZTVSt8bad_cast
                0x0000000008a0f8a8       0x18 c:/devkitpro/devkitpsp/bin/../lib/gcc/psp/4.1.2/../../../../psp/lib\libstdc++.a(tinfo.o)
                0x0000000008a0f8a8                vtable for std::bad_cast
 .rodata._ZTVSt9type_info
                0x0000000008a0f8c0       0x20 c:/devkitpro/devkitpsp/bin/../lib/gcc/psp/4.1.2/../../../../psp/lib\libstdc++.a(tinfo.o)
                0x0000000008a0f8c0                vtable for std::type_info
 .rodata._ZTSN10__cxxabiv121__vmi_class_type_infoE
                0x0000000008a0f8e0       0x28 c:/devkitpro/devkitpsp/bin/../lib/gcc/psp/4.1.2/../../../../psp/lib\libstdc++.a(tinfo.o)
                0x0000000008a0f8e0                typeinfo name for __cxxabiv1::__vmi_class_type_info
 .rodata._ZTIN10__cxxabiv121__vmi_class_type_infoE
                0x0000000008a0f908        0xc c:/devkitpro/devkitpsp/bin/../lib/gcc/psp/4.1.2/../../../../psp/lib\libstdc++.a(tinfo.o)
                0x0000000008a0f908                typeinfo for __cxxabiv1::__vmi_class_type_info
 .rodata._ZTSN10__cxxabiv120__si_class_type_infoE
                0x0000000008a0f914       0x28 c:/devkitpro/devkitpsp/bin/../lib/gcc/psp/4.1.2/../../../../psp/lib\libstdc++.a(tinfo.o)
                0x0000000008a0f914                typeinfo name for __cxxabiv1::__si_class_type_info
 .rodata._ZTIN10__cxxabiv120__si_class_type_infoE
                0x0000000008a0f93c        0xc c:/devkitpro/devkitpsp/bin/../lib/gcc/psp/4.1.2/../../../../psp/lib\libstdc++.a(tinfo.o)
                0x0000000008a0f93c                typeinfo for __cxxabiv1::__si_class_type_info
 .rodata._ZTSN10__cxxabiv117__class_type_infoE
                0x0000000008a0f948       0x24 c:/devkitpro/devkitpsp/bin/../lib/gcc/psp/4.1.2/../../../../psp/lib\libstdc++.a(tinfo.o)
                0x0000000008a0f948                typeinfo name for __cxxabiv1::__class_type_info
 .rodata._ZTIN10__cxxabiv117__class_type_infoE
                0x0000000008a0f96c        0xc c:/devkitpro/devkitpsp/bin/../lib/gcc/psp/4.1.2/../../../../psp/lib\libstdc++.a(tinfo.o)
                0x0000000008a0f96c                typeinfo for __cxxabiv1::__class_type_info
 .rodata._ZTSSt10bad_typeid
                0x0000000008a0f978       0x10 c:/devkitpro/devkitpsp/bin/../lib/gcc/psp/4.1.2/../../../../psp/lib\libstdc++.a(tinfo.o)
                0x0000000008a0f978                typeinfo name for std::bad_typeid
 .rodata._ZTISt10bad_typeid
                0x0000000008a0f988        0xc c:/devkitpro/devkitpsp/bin/../lib/gcc/psp/4.1.2/../../../../psp/lib\libstdc++.a(tinfo.o)
                0x0000000008a0f988                typeinfo for std::bad_typeid
 .rodata._ZTSSt8bad_cast
                0x0000000008a0f994        0xc c:/devkitpro/devkitpsp/bin/../lib/gcc/psp/4.1.2/../../../../psp/lib\libstdc++.a(tinfo.o)
                0x0000000008a0f994                typeinfo name for std::bad_cast
 .rodata._ZTISt8bad_cast
                0x0000000008a0f9a0        0xc c:/devkitpro/devkitpsp/bin/../lib/gcc/psp/4.1.2/../../../../psp/lib\libstdc++.a(tinfo.o)
                0x0000000008a0f9a0                typeinfo for std::bad_cast
 .rodata._ZTSSt9type_info
                0x0000000008a0f9ac       0x10 c:/devkitpro/devkitpsp/bin/../lib/gcc/psp/4.1.2/../../../../psp/lib\libstdc++.a(tinfo.o)
                0x0000000008a0f9ac                typeinfo name for std::type_info
 .rodata._ZTISt9type_info
                0x0000000008a0f9bc        0x8 c:/devkitpro/devkitpsp/bin/../lib/gcc/psp/4.1.2/../../../../psp/lib\libstdc++.a(tinfo.o)
                0x0000000008a0f9bc                typeinfo for std::type_info
 *fill*         0x0000000008a0f9c4        0x4 00
 .rodata.cst8   0x0000000008a0f9c8        0x8 c:/devkitpro/devkitpsp/bin/../lib/gcc/psp/4.1.2/../../../../psp/lib\libm.a(s_ceil.o)
 .rodata.cst8   0x0000000008a0f9d0        0x0 c:/devkitpro/devkitpsp/bin/../lib/gcc/psp/4.1.2/../../../../psp/lib\libm.a(s_floor.o)
                                          0x8 (size before relaxing)
 .rodata.str1.4
                0x0000000008a0f9d0        0x4 c:/devkitpro/devkitpsp/bin/../lib/gcc/psp/4.1.2/../../../../psp/lib\libm.a(w_log.o)
 *fill*         0x0000000008a0f9d4        0x4 00
 .rodata.cst8   0x0000000008a0f9d8       0x10 c:/devkitpro/devkitpsp/bin/../lib/gcc/psp/4.1.2/../../../../psp/lib\libm.a(w_log.o)
 .rodata.str1.4
                0x0000000008a0f9e8        0x6 c:/devkitpro/devkitpsp/bin/../lib/gcc/psp/4.1.2/../../../../psp/lib\libm.a(w_log10.o)
                                          0x8 (size before relaxing)
 .rodata.cst8   0x0000000008a0f9ee        0x0 c:/devkitpro/devkitpsp/bin/../lib/gcc/psp/4.1.2/../../../../psp/lib\libm.a(w_log10.o)
                                         0x10 (size before relaxing)
 *fill*         0x0000000008a0f9ee        0x2 00
 .rodata.str1.4
                0x0000000008a0f9f0        0x4 c:/devkitpro/devkitpsp/bin/../lib/gcc/psp/4.1.2/../../../../psp/lib\libm.a(w_pow.o)
 *fill*         0x0000000008a0f9f4        0x4 00
 .rodata.cst8   0x0000000008a0f9f8       0x10 c:/devkitpro/devkitpsp/bin/../lib/gcc/psp/4.1.2/../../../../psp/lib\libm.a(w_pow.o)
                                         0x30 (size before relaxing)
 .rodata.str1.4
                0x0000000008a0fa08        0x5 c:/devkitpro/devkitpsp/bin/../lib/gcc/psp/4.1.2/../../../../psp/lib\libm.a(w_sqrt.o)
                                          0x8 (size before relaxing)
 *fill*         0x0000000008a0fa0d        0x3 00
 .rodata.cst8   0x0000000008a0fa10       0x68 c:/devkitpro/devkitpsp/bin/../lib/gcc/psp/4.1.2/../../../../psp/lib\libm.a(e_log.o)
                                         0x80 (size before relaxing)
 .rodata.cst8   0x0000000008a0fa78       0x18 c:/devkitpro/devkitpsp/bin/../lib/gcc/psp/4.1.2/../../../../psp/lib\libm.a(e_log10.o)
                                         0x28 (size before relaxing)
 .rodata.cst8   0x0000000008a0fa90       0xd0 c:/devkitpro/devkitpsp/bin/../lib/gcc/psp/4.1.2/../../../../psp/lib\libm.a(e_pow.o)
                                         0xf8 (size before relaxing)
 .rodata        0x0000000008a0fb60       0x30 c:/devkitpro/devkitpsp/bin/../lib/gcc/psp/4.1.2/../../../../psp/lib\libm.a(e_pow.o)
 .rodata.cst8   0x0000000008a0fb90       0x48 c:/devkitpro/devkitpsp/bin/../lib/gcc/psp/4.1.2/../../../../psp/lib\libm.a(e_rem_pio2.o)
                                         0x50 (size before relaxing)
 .rodata        0x0000000008a0fbd8      0x188 c:/devkitpro/devkitpsp/bin/../lib/gcc/psp/4.1.2/../../../../psp/lib\libm.a(e_rem_pio2.o)
 .rodata.cst8   0x0000000008a0fd60       0x40 c:/devkitpro/devkitpsp/bin/../lib/gcc/psp/4.1.2/../../../../psp/lib\libm.a(k_cos.o)
                                         0x50 (size before relaxing)
 .rodata.cst8   0x0000000008a0fda0       0x18 c:/devkitpro/devkitpsp/bin/../lib/gcc/psp/4.1.2/../../../../psp/lib\libm.a(k_rem_pio2.o)
                                         0x38 (size before relaxing)
 .rodata.cst4   0x0000000008a0fdb8        0x4 c:/devkitpro/devkitpsp/bin/../lib/gcc/psp/4.1.2/../../../../psp/lib\libm.a(k_rem_pio2.o)
 *fill*         0x0000000008a0fdbc        0x4 00
 .rodata        0x0000000008a0fdc0       0x50 c:/devkitpro/devkitpsp/bin/../lib/gcc/psp/4.1.2/../../../../psp/lib\libm.a(k_rem_pio2.o)
 .rodata.cst8   0x0000000008a0fe10       0x30 c:/devkitpro/devkitpsp/bin/../lib/gcc/psp/4.1.2/../../../../psp/lib\libm.a(k_sin.o)
                                         0x38 (size before relaxing)
 .rodata        0x0000000008a0fe40        0x4 c:/devkitpro/devkitpsp/bin/../lib/gcc/psp/4.1.2/../../../../psp/lib\libm.a(s_lib_ver.o)
                0x0000000008a0fe40                __fdlib_version
 *fill*         0x0000000008a0fe44        0x4 00
 .rodata        0x0000000008a0fe48       0x10 c:/devkitpro/devkitpsp/bin/../lib/gcc/psp/4.1.2/../../../../psp/lib\libm.a(s_rint.o)
 .rodata.cst8   0x0000000008a0fe58        0x8 c:/devkitpro/devkitpsp/bin/../lib/gcc/psp/4.1.2/../../../../psp/lib\libm.a(s_scalbn.o)
                                         0x20 (size before relaxing)
 .rodata        0x0000000008a0fe60      0x104 c:/devkitpro/devkitpsp/bin/../lib/gcc/psp/4.1.2/../../../../psp/lib\libc.a(ctype_.o)
                0x0000000008a0fe60                _ctype_
 .rodata.str1.4
                0x0000000008a0ff64        0x2 c:/devkitpro/devkitpsp/bin/../lib/gcc/psp/4.1.2/../../../../psp/lib\libc.a(impure.o)
                                          0x4 (size before relaxing)
 *fill*         0x0000000008a0ff66        0x2 00
 .rodata        0x0000000008a0ff68       0x68 c:/devkitpro/devkitpsp/bin/../lib/gcc/psp/4.1.2/../../../../psp/lib\libc.a(mktm_r.o)
 .rodata.str1.4
                0x0000000008a0ffd0      0x7a2 c:/devkitpro/devkitpsp/bin/../lib/gcc/psp/4.1.2/../../../../psp/lib\libc.a(strerror.o)
                                        0x7a8 (size before relaxing)
 *fill*         0x0000000008a10772        0x2 00
 .rodata        0x0000000008a10774      0x21c c:/devkitpro/devkitpsp/bin/../lib/gcc/psp/4.1.2/../../../../psp/lib\libc.a(strerror.o)
 .rodata.cst8   0x0000000008a10990       0x20 c:/devkitpro/devkitpsp/bin/../lib/gcc/psp/4.1.2/../../../../psp/lib\libc.a(strtod.o)
                                         0x50 (size before relaxing)
 .rodata.cst4   0x0000000008a109b0        0x4 c:/devkitpro/devkitpsp/bin/../lib/gcc/psp/4.1.2/../../../../psp/lib\libc.a(strtod.o)
 .rodata        0x0000000008a109b4       0xb8 c:/devkitpro/devkitpsp/bin/../lib/gcc/psp/4.1.2/../../../../psp/lib\libc.a(strtod.o)
 .rodata.str1.4
                0x0000000008a10a6c        0x4 c:/devkitpro/devkitpsp/bin/../lib/gcc/psp/4.1.2/../../../../psp/lib\libc.a(tzvars.o)
 .rodata.str1.4
                0x0000000008a10a70       0x4b c:/devkitpro/devkitpsp/bin/../lib/gcc/psp/4.1.2/../../../../psp/lib\libc.a(vfiprintf.o)
                                         0x4c (size before relaxing)
 *fill*         0x0000000008a10abb        0x1 00
 .rodata        0x0000000008a10abc      0x184 c:/devkitpro/devkitpsp/bin/../lib/gcc/psp/4.1.2/../../../../psp/lib\libc.a(vfiprintf.o)
 .rodata.cst8   0x0000000008a10c40       0x18 c:/devkitpro/devkitpsp/bin/../lib/gcc/psp/4.1.2/../../../../psp/lib\libc.a(vxprintf.o)
                                         0x38 (size before relaxing)
 .rodata.str1.4
                0x0000000008a10c58       0x2b c:/devkitpro/devkitpsp/bin/../lib/gcc/psp/4.1.2/../../../../psp/lib\libc.a(vxprintf.o)
                                         0x6c (size before relaxing)
 *fill*         0x0000000008a10c83        0x1 00
 .rodata        0x0000000008a10c84       0xac c:/devkitpro/devkitpsp/bin/../lib/gcc/psp/4.1.2/../../../../psp/lib\libc.a(vxprintf.o)
 .rodata.str1.4
                0x0000000008a10d30       0x1e c:/devkitpro/devkitpsp/bin/../lib/gcc/psp/4.1.2/../../../../psp/lib\libc.a(wctomb_r.o)
                                         0x20 (size before relaxing)
 *fill*         0x0000000008a10d4e        0x2 00
 .rodata.str1.4
                0x0000000008a10d50        0x6 c:/devkitpro/devkitpsp/bin/../lib/gcc/psp/4.1.2/../../../../psp/lib\libc.a(_sbrk.o)
                                          0x8 (size before relaxing)
 *fill*         0x0000000008a10d56        0x2 00
 .rodata.str1.4
                0x0000000008a10d58        0xb c:/devkitpro/devkitpsp/bin/../lib/gcc/psp/4.1.2/../../../../psp/lib\libc.a(locale.o)
                                         0x18 (size before relaxing)
 *fill*         0x0000000008a10d63        0x1 00
 .rodata        0x0000000008a10d64       0x34 c:/devkitpro/devkitpsp/bin/../lib/gcc/psp/4.1.2/../../../../psp/lib\libc.a(locale.o)
 .rodata.cst8   0x0000000008a10d98        0x0 c:/devkitpro/devkitpsp/bin/../lib/gcc/psp/4.1.2/../../../../psp/lib\libc.a(mprec.o)
                                         0x10 (size before relaxing)
 .rodata        0x0000000008a10d98      0x128 c:/devkitpro/devkitpsp/bin/../lib/gcc/psp/4.1.2/../../../../psp/lib\libc.a(mprec.o)
                0x0000000008a10e88                __mprec_tinytens
                0x0000000008a10d98                __mprec_tens
                0x0000000008a10e60                __mprec_bigtens
 .rodata.str1.4
                0x0000000008a10ec0       0x10 c:/devkitpro/devkitpsp/bin/../lib/gcc/psp/4.1.2/../../../../psp/lib\libc.a(pipe.o)
 .rodata.str1.4
                0x0000000008a10ed0        0x0 c:/devkitpro/devkitpsp/bin/../lib/gcc/psp/4.1.2/../../../../psp/lib\libc.a(pspcwd.o)
                                          0x4 (size before relaxing)
 .rodata.cst4   0x0000000008a10ed0        0x4 c:/devkitpro/devkitpsp/bin/../lib/gcc/psp/4.1.2/../../../../psp/lib\libc.a(sf_nan.o)
 .rodata        0x0000000008a10ed4       0x60 c:/devkitpro/devkitpsp/bin/../lib/gcc/psp/4.1.2/../../../../psp/lib\libc.a(mktime.o)
 *fill*         0x0000000008a10f34        0x4 00
 .rodata.cst8   0x0000000008a10f38        0x8 c:/devkitpro/devkitpsp/bin/../lib/gcc/psp/4.1.2\libgcc.a(_fixunsdfsi.o)
 .rodata.cst8   0x0000000008a10f40        0x8 c:/devkitpro/devkitpsp/bin/../lib/gcc/psp/4.1.2\libgcc.a(_si_to_df.o)
 .rodata        0x0000000008a10f48       0x18 c:/devkitpro/devkitpsp/bin/../lib/gcc/psp/4.1.2\libgcc.a(_thenan_df.o)
                0x0000000008a10f48                __thenan_df
 .rodata        0x0000000008a10f60      0x398 c:/devkitpro/devkitpsp/bin/../lib/gcc/psp/4.1.2\libgcc.a(unwind-dw2.o)
 .rodata        0x0000000008a112f8       0x34 c:/devkitpro/devkitpsp/bin/../lib/gcc/psp/4.1.2\libgcc.a(unwind-dw2-fde.o)
 .rodata        0x0000000008a1132c      0x100 c:/devkitpro/devkitpsp/bin/../lib/gcc/psp/4.1.2\libgcc.a(_clz.o)
                0x0000000008a1132c                __clz_tab

.rodata1
 *(.rodata1)

.sdata2
 *(.sdata2 .sdata2.* .gnu.linkonce.s2.*)

.sbss2
 *(.sbss2 .sbss2.* .gnu.linkonce.sb2.*)

.eh_frame_hdr
 *(.eh_frame_hdr)

.eh_frame
 *(.eh_frame)

.gcc_except_table
 *(.gcc_except_table)
 *(.gcc_except_table.*)
                0x0000000008a1152c                . = (ALIGN (0x100) + (. & 0xff))

.eh_frame       0x0000000008a1152c      0x978
 *(.eh_frame)
 .eh_frame      0x0000000008a1152c      0x180 c:/devkitpro/devkitpsp/bin/../lib/gcc/psp/4.1.2/../../../../psp/lib\libstdc++.a(eh_personality.o)
 .eh_frame      0x0000000008a116ac       0x94 c:/devkitpro/devkitpsp/bin/../lib/gcc/psp/4.1.2/../../../../psp/lib\libstdc++.a(eh_terminate.o)
                                         0xb0 (size before relaxing)
 .eh_frame      0x0000000008a11740       0x84 c:/devkitpro/devkitpsp/bin/../lib/gcc/psp/4.1.2/../../../../psp/lib\libstdc++.a(eh_throw.o)
 .eh_frame      0x0000000008a117c4       0x48 c:/devkitpro/devkitpsp/bin/../lib/gcc/psp/4.1.2/../../../../psp/lib\libstdc++.a(new_op.o)
 .eh_frame      0x0000000008a1180c       0x24 c:/devkitpro/devkitpsp/bin/../lib/gcc/psp/4.1.2/../../../../psp/lib\libstdc++.a(new_opv.o)
                                         0x40 (size before relaxing)
 .eh_frame      0x0000000008a11830       0x28 c:/devkitpro/devkitpsp/bin/../lib/gcc/psp/4.1.2/../../../../psp/lib\libstdc++.a(vterminate.o)
                                         0x44 (size before relaxing)
 .eh_frame      0x0000000008a11858       0x2c c:/devkitpro/devkitpsp/bin/../lib/gcc/psp/4.1.2/../../../../psp/lib\libstdc++.a(eh_alloc.o)
                                         0x48 (size before relaxing)
 .eh_frame      0x0000000008a11884       0x3c c:/devkitpro/devkitpsp/bin/../lib/gcc/psp/4.1.2/../../../../psp/lib\libstdc++.a(eh_call.o)
 .eh_frame      0x0000000008a118c0       0x6c c:/devkitpro/devkitpsp/bin/../lib/gcc/psp/4.1.2/../../../../psp/lib\libstdc++.a(eh_catch.o)
 .eh_frame      0x0000000008a1192c      0x16c c:/devkitpro/devkitpsp/bin/../lib/gcc/psp/4.1.2/../../../../psp/lib\libstdc++.a(tinfo.o)
 .eh_frame      0x0000000008a11a98       0x20 c:/devkitpro/devkitpsp/bin/../lib/gcc/psp/4.1.2\libgcc.a(_udivdi3.o)
 .eh_frame      0x0000000008a11ab8       0x20 c:/devkitpro/devkitpsp/bin/../lib/gcc/psp/4.1.2\libgcc.a(_umoddi3.o)
                                         0x30 (size before relaxing)
 .eh_frame      0x0000000008a11ad8      0x2c4 c:/devkitpro/devkitpsp/bin/../lib/gcc/psp/4.1.2\libgcc.a(unwind-dw2.o)
                                        0x2d4 (size before relaxing)
 .eh_frame      0x0000000008a11d9c      0x104 c:/devkitpro/devkitpsp/bin/../lib/gcc/psp/4.1.2\libgcc.a(unwind-dw2-fde.o)
                                        0x114 (size before relaxing)
 .eh_frame      0x0000000008a11ea0        0x4 c:/devkitpro/devkitpsp/bin/../lib/gcc/psp/4.1.2/crtend.o

.gcc_except_table
                0x0000000008a11ea4       0xfc
 *(.gcc_except_table)
 .gcc_except_table
                0x0000000008a11ea4       0x48 c:/devkitpro/devkitpsp/bin/../lib/gcc/psp/4.1.2/../../../../psp/lib\libstdc++.a(eh_personality.o)
 .gcc_except_table
                0x0000000008a11eec       0x18 c:/devkitpro/devkitpsp/bin/../lib/gcc/psp/4.1.2/../../../../psp/lib\libstdc++.a(eh_terminate.o)
 .gcc_except_table
                0x0000000008a11f04       0x1c c:/devkitpro/devkitpsp/bin/../lib/gcc/psp/4.1.2/../../../../psp/lib\libstdc++.a(new_op.o)
 .gcc_except_table
                0x0000000008a11f20       0x18 c:/devkitpro/devkitpsp/bin/../lib/gcc/psp/4.1.2/../../../../psp/lib\libstdc++.a(new_opv.o)
 .gcc_except_table
                0x0000000008a11f38       0x38 c:/devkitpro/devkitpsp/bin/../lib/gcc/psp/4.1.2/../../../../psp/lib\libstdc++.a(vterminate.o)
 .gcc_except_table
                0x0000000008a11f70       0x18 c:/devkitpro/devkitpsp/bin/../lib/gcc/psp/4.1.2/../../../../psp/lib\libstdc++.a(eh_alloc.o)
 .gcc_except_table
                0x0000000008a11f88       0x18 c:/devkitpro/devkitpsp/bin/../lib/gcc/psp/4.1.2/../../../../psp/lib\libstdc++.a(eh_catch.o)
 *(.gcc_except_table.*)

.tdata
 *(.tdata .tdata.* .gnu.linkonce.td.*)

.tbss
 *(.tbss .tbss.* .gnu.linkonce.tb.*)
 *(.tcommon)
                0x0000000008a11fa0                . = ALIGN (0x4)
                0x0000000008a11fa0                PROVIDE (__preinit_array_start, .)

.preinit_array
 *(.preinit_array)
                0x0000000008a11fa0                PROVIDE (__preinit_array_end, .)
                0x0000000008a11fa0                PROVIDE (__init_array_start, .)

.init_array
 *(.init_array)
                0x0000000008a11fa0                PROVIDE (__init_array_end, .)
                0x0000000008a11fa0                PROVIDE (__fini_array_start, .)

.fini_array
 *(.fini_array)
                0x0000000008a11fa0                PROVIDE (__fini_array_end, .)

.ctors          0x0000000008a11fa0        0x8
 *crtbegin*.o(.ctors)
 .ctors         0x0000000008a11fa0        0x4 c:/devkitpro/devkitpsp/bin/../lib/gcc/psp/4.1.2/crtbegin.o
 *(EXCLUDE_FILE(*crtend*.o) .ctors)
 *(SORT(.ctors.*))
 *(.ctors)
 .ctors         0x0000000008a11fa4        0x4 c:/devkitpro/devkitpsp/bin/../lib/gcc/psp/4.1.2/crtend.o

.dtors          0x0000000008a11fa8        0x8
 *crtbegin*.o(.dtors)
 .dtors         0x0000000008a11fa8        0x4 c:/devkitpro/devkitpsp/bin/../lib/gcc/psp/4.1.2/crtbegin.o
 *(EXCLUDE_FILE(*crtend*.o) .dtors)
 *(SORT(.dtors.*))
 *(.dtors)
 .dtors         0x0000000008a11fac        0x4 c:/devkitpro/devkitpsp/bin/../lib/gcc/psp/4.1.2/crtend.o

.jcr            0x0000000008a11fb0        0x4
 *(.jcr)
 .jcr           0x0000000008a11fb0        0x4 c:/devkitpro/devkitpsp/bin/../lib/gcc/psp/4.1.2/crtend.o

.data.rel.ro
 *(.data.rel.ro.local)
 *(.data.rel.ro*)

.data           0x0000000008a11fc0    0x17be0
                0x0000000008a11fc0                _fdata = .
 *(.data .data.* .gnu.linkonce.d.*)
 .data          0x0000000008a11fc0        0x8 c:/devkitpro/devkitpsp/bin/../lib/gcc/psp/4.1.2/crtbegin.o
                0x0000000008a11fc0                __dso_handle
 .data          0x0000000008a11fc8    0x10008 gbcore/apu.o
                0x0000000008a11fcc                _mrand7
                0x0000000008a19fcc                _mrand15
                0x0000000008a11fc8                snd_stat_upd
 .data          0x0000000008a21fd0     0x1004 gbcore/cpu.o
                0x0000000008a223d4                cpu_io_write_JmpTbl
                0x0000000008a22bd4                op_code_normal_JmpTbl
                0x0000000008a227d4                op_code_cb_JmpTbl
                0x0000000008a21fd4                cpu_io_read_JmpTbl
                0x0000000008a21fd0                rp_fd
 .data          0x0000000008a22fd4        0x4 gbcore/gb.o
                0x0000000008a22fd4                vframe
 .data          0x0000000008a22fd8       0x34 gbcore/lcd.o
                0x0000000008a23008                col_pal_is_invalidated
                0x0000000008a22fd8                m_pal16
                0x0000000008a23009                gb_pal_is_invalidated
 .data          0x0000000008a2300c       0x10 gbcore/sgb.o
                0x0000000008a23010                sgb_attraction_mode
                0x0000000008a23018                sgb_nextcontrol
                0x0000000008a2300c                sgb_ft
                0x0000000008a23014                sgb_file_transfer
 .data          0x0000000008a2301c       0x1c cpu/z80.o
                0x0000000008a2301c                Z80_Context
 .data          0x0000000008a23038      0x848 vdp.o
                0x0000000008a2385c                hc_table
                0x0000000008a23298                vc_ntsc_224
                0x0000000008a23190                vc_ntsc_192
                0x0000000008a235e4                vc_pal_224
                0x0000000008a233a0                vc_ntsc_256
                0x0000000008a234a8                vc_pal_192
                0x0000000008a23720                vc_pal_256
                0x0000000008a23038                hc_ntsc_256
                0x0000000008a23860                vc_table
 .data          0x0000000008a23880      0x380 sound/emu2413.o
 .data          0x0000000008a23c00        0x8 psp/PspSound.o
                0x0000000008a23c00                soundPause
                0x0000000008a23c04                soundRunning
 .data          0x0000000008a23c08        0x4 psp/main.o
                0x0000000008a23c08                sce_newlib_attribute
 .data          0x0000000008a23c0c     0x3940 psp/menuplus.o
                0x0000000008a2716c                menuMainMisc
                0x0000000008a23c18                menuMainMiscPspClockItems
                0x0000000008a267bc                menuMainVideoMiscItems
                0x0000000008a25a08                menuMainFileMusicFrequencyNumericMinMax
                0x0000000008a24a40                menuMainCtrlRedefineAutofireRateMinMax
                0x0000000008a265ac                menuMainVideoRenderItems
                0x0000000008a2443c                menuMainVideoVSyncItems
                0x0000000008a246a4                menuMainSoundStereoItems
                0x0000000008a2525c                menuMainVideoCountry
                0x0000000008a26910                menuMainVideoSync
                0x0000000008a257e8                menuMainCtrlRedefine
                0x0000000008a26560                menuMainVideoGBType
                0x0000000008a23f6c                menuMainVideoCountryItems
                0x0000000008a25470                menuMainVideoGammaNumericMinMax
                0x0000000008a26018                menuMainVideoVibranceNumericMinMax
                0x0000000008a24284                menuMainVideoFrameskipMaxItems
                0x0000000008a24f04                menuMainCtrlAnalogTreshold
                0x0000000008a24ad4                menuMainCtrlRedefineItems
                0x0000000008a246fc                menuMainSoundBoostItems
                0x0000000008a26840                menuMainVideoGBItems
                0x0000000008a262fc                menuMainVideoRenderLeftBar
                0x0000000008a2703c                menuMainState
                0x0000000008a26060                menuMainVideoVibranceNumeric
                0x0000000008a2695c                menuMainVideoRender
                0x0000000008a261d4                menuMainVideoRenderDepthItems
                0x0000000008a24804                menuMainSoundSyncModeItems
                0x0000000008a26e44                menuMainSmsTweakZ80Items
                0x0000000008a23dfc                menuMainVideoTurboSkipNumericMinMax
                0x0000000008a25750                menuMainSoundTurboSound
                0x0000000008a23c0c                LARGEUR_MENU
                0x0000000008a24494                menuMainMiscUIBackgroundItems
                0x0000000008a2579c                menuMainSoundSyncMode
                0x0000000008a27088                menuMainVideo
                0x0000000008a25550                menuMainVideoCpuTimeItems
                0x0000000008a263ec                menuMainVideoGBTypeItems
                0x0000000008a23c10                MENU_MAX_DISPLAYED_OPTIONS
                0x0000000008a23fc4                menuMainVideoScalingItems
                0x0000000008a240cc                menuMainVideoFrameskipItems
                0x0000000008a256b8                menuMainSoundStereo
                0x0000000008a24eb8                menuMainVideoTurboSkip
                0x0000000008a24620                menuMainSoundRateItems
                0x0000000008a23c14                gblShortcutKey
                0x0000000008a269a8                menuMainVideoGB
                0x0000000008a24f9c                menuMainCtrlAnalogCalibrationEnabled
                0x0000000008a264c8                menuMainVideoSyncMode
                0x0000000008a244ec                menuMainVideoGammaItems
                0x0000000008a260ac                menuMainVideoVibranceItems
                0x0000000008a2727c                menuMsgBoxReloadConfig
                0x0000000008a272f4                menuMsgBoxSaveConfigItems_SMS
                0x0000000008a25fcc                menuMainVideoBrightnessMode
                0x0000000008a26fa4                menuMainSmsTweakZ80
                0x0000000008a25b78                menuMainFileMusicFrequency
                0x0000000008a25c74                menuMainFileMusicRepeat
                0x0000000008a247ac                menuMainSoundTurboSoundItems
                0x0000000008a26cb4                menuMainMiscUI
                0x0000000008a24e70                menuMainCtrlAnalogTresholdMinMax
                0x0000000008a26188                menuMainVideoVibrance
                0x0000000008a26348                menuMainVideoRenderSpriteLimit
                0x0000000008a25a9c                menuMainFileMusicFrequencyItems
                0x0000000008a26d00                menuMainMiscItems
                0x0000000008a272c8                menuMsgBoxSaveConfigItems_noGame
                0x0000000008a25504                menuMainVideoGamma
                0x0000000008a26bac                menuMainCtrlItems
                0x0000000008a26df8                menuMainSmsTweakZ80Numeric
                0x0000000008a254b8                menuMainVideoGammaNumeric
                0x0000000008a259bc                menuMainMiscCommands
                0x0000000008a253d8                menuMainVideoVSync
                0x0000000008a25cc0                menuMainFileMusicItems
                0x0000000008a23e90                menuMainVideoTurboSkipItems
                0x0000000008a271b8                menuMainItems
                0x0000000008a2566c                menuMainSoundRate
                0x0000000008a270d4                menuMainSound
                0x0000000008a24a88                menuMainCtrlRedefineAutofireRate
                0x0000000008a271f8                menuMsgBoxReloadConfigItems
                0x0000000008a24fe8                menuMainCtrlAnalogCalibrationItems
                0x0000000008a25970                menuMainFileSram
                0x0000000008a251c4                menuMainFileStateSave
                0x0000000008a252f4                menuMainVideoSmoothing
                0x0000000008a26db0                menuMainSmsTweakZ80NumericMinMax
                0x0000000008a268c4                menuMainVideoMisc
                0x0000000008a26ff0                menuMainFile
                0x0000000008a24cb8                menuMainCtrlShortcutsItems
                0x0000000008a23e44                menuMainVideoTurboSkipNumeric
                0x0000000008a25d70                menuMainFileMusic
                0x0000000008a25620                menuMainSoundEnabled
                0x0000000008a25704                menuMainSoundBoost
                0x0000000008a25210                menuMainFileStateDelete
                0x0000000008a2670c                menuMainVideoSyncItems
                0x0000000008a24f50                menuMainCtrlAnalogToDPad
                0x0000000008a25178                menuMainFileStateLoad
                0x0000000008a2622c                menuMainVideoRenderDepth
                0x0000000008a255d4                menuMainVideoCpuTime
                0x0000000008a2538c                menuMainVideoFrameskipMax
                0x0000000008a25834                menuMainCtrlShortcuts
                0x0000000008a25918                menuMainFileSramItems
                0x0000000008a26aa4                menuMainSoundItems
                0x0000000008a26514                menuMainVideoGBColorization
                0x0000000008a25424                menuMainMiscUIBackground
                0x0000000008a26278                menuMainVideoRenderLeftBarItems
                0x0000000008a27120                menuMainCtrl
                0x0000000008a252a8                menuMainVideoScaling
                0x0000000008a273fc                menuMsgBoxSaveConfig
                0x0000000008a25dbc                menuMainFileItems
                0x0000000008a250e4                menuMainMiscPspClockNumericMinMax
                0x0000000008a25880                menuMainCtrlAnalogCalibration
                0x0000000008a25e98                menuMainStateItems
                0x0000000008a271f0                menuMain
                0x0000000008a2485c                menuMainFileStateItems
                0x0000000008a25f48                menuMainVideoBrightnessModeItems
                0x0000000008a269f4                menuMainVideoItems
                0x0000000008a25340                menuMainVideoFrameskip
                0x0000000008a258cc                menuMainFileSramAutosave
                0x0000000008a2512c                menuMainMiscPspClockNumeric
                0x0000000008a26394                menuMainVideoSyncModeItems
                0x0000000008a25bc4                menuMainFileMusicRepeatItems
                0x0000000008a25098                menuMainMiscPspClock
                0x0000000008a25a50                menuMainFileMusicFrequencyNumeric
                0x0000000008a26c30                menuMainMiscUIItems
                0x0000000008a245c8                menuMainOnOffItems
                0x0000000008a27378                menuMsgBoxSaveConfigItems_GBC
 .data          0x0000000008a2754c       0x94 psp/menuplus2.o
                0x0000000008a27594                menuPaletteList
                0x0000000008a2754c                stRomExtentions
                0x0000000008a27584                stMusicExtentions
 .data          0x0000000008a275e0       0x8c psp/config.o
                0x0000000008a27610                infoTabMenuColCursor
                0x0000000008a27634                infoObjCtrl
                0x0000000008a2765c                infoObjColorIt
                0x0000000008a2761c                infoObjFile
                0x0000000008a275e0                bModeWideCrLf
                0x0000000008a275f8                infoTabCtrlKeys
                0x0000000008a2764c                infoObjMusic
                0x0000000008a275e4                infoTabCtrlAnalogCalValues
                0x0000000008a27624                infoObjVideo
                0x0000000008a27664                infoObjMain
                0x0000000008a2763c                infoObjMisc
                0x0000000008a27604                infoTabCtrlCuts
                0x0000000008a275f0                infoObjCtrlAnalog
                0x0000000008a27654                infoObjGameBoy
                0x0000000008a2762c                infoObjSound
                0x0000000008a27644                infoObjMenu
 .data          0x0000000008a2766c        0xc psp/sound.o
                0x0000000008a2766c                musicThread
                0x0000000008a27674                musicVolume
                0x0000000008a27670                menuMusicState
 .data          0x0000000008a27678      0x1a4 loadrom.o
                0x0000000008a27678                game_list
 .data          0x0000000008a2781c       0x3c psp/gym/gym.o
                0x0000000008a2783c                CODEC_GYM::cfg_dac_enable
                0x0000000008a27840                CODEC_GYM::cfg_psg_enable
                0x0000000008a27830                CODEC_GYM::cfg_chan4_enable
                0x0000000008a2782c                CODEC_GYM::cfg_chan3_enable
                0x0000000008a2781c                CODEC_GYM::cfg_samplerate
                0x0000000008a27844                CODEC_GYM::cfg_psg_chan1_enable
                0x0000000008a27834                CODEC_GYM::cfg_chan5_enable
                0x0000000008a27828                CODEC_GYM::cfg_chan2_enable
                0x0000000008a27824                CODEC_GYM::cfg_chan1_enable
                0x0000000008a27848                CODEC_GYM::cfg_psg_chan2_enable
                0x0000000008a2784c                CODEC_GYM::cfg_psg_chan3_enable
                0x0000000008a27838                CODEC_GYM::cfg_chan6_enable
                0x0000000008a27850                CODEC_GYM::cfg_psg_chan4_enable
                0x0000000008a27820                CODEC_GYM::cfg_ym2612_enable
                0x0000000008a27854                CODEC_GYM::cfg_num_loop
 .data          0x0000000008a27858        0x8 psp/gym/gym_play.o
                0x0000000008a27858                YM2612_Enable
                0x0000000008a2785c                gym_update_needed
 .data          0x0000000008a27860      0x120 psp/gym/ym2612.o
                0x0000000008a27960                ENV_NEXT_EVENT
                0x0000000008a27860                UPDATE_CHAN
 .data          0x0000000008a27980      0x400 psp/gym/bzlib/crctable.o
                0x0000000008a27980                BZ2_crc32Table
 .data          0x0000000008a27d80      0x800 psp/gym/bzlib/randtable.o
                0x0000000008a27d80                BZ2_rNums
 .data          0x0000000008a28580       0x80 psp/vgm/mame_fm.o
 .data          0x0000000008a28600      0x268 psp/vgm/emu2413.o
 .data          0x0000000008a28868        0xc psp/vgm/In_vgm.o
                0x0000000008a28870                SN76489_Mute
                0x0000000008a28868                vgmSampleRateModified
                0x0000000008a2886c                LoopingFadeOutms
 .data          0x0000000008a28874       0x30 psp/VirtualGz.o
                0x0000000008a28878                vfsGzFile
                0x0000000008a28874                VF_GZFILE
 .data          0x0000000008a288a4        0x4 c:/devkitPro/devkitPSP/psp/sdk/lib\libosl.a(oslib.o)
                0x0000000008a288a4                osl_vblankCounterActive
 .data          0x0000000008a288a8        0xc c:/devkitPro/devkitPSP/psp/sdk/lib\libosl.a(drawing.o)
                0x0000000008a288a8                osl_alignBuffer
                0x0000000008a288b0                osl_textureEnabled
                0x0000000008a288ac                osl_doubleBuffer
 .data          0x0000000008a288b4        0x4 c:/devkitPro/devkitPSP/psp/sdk/lib\libosl.a(image.o)
                0x0000000008a288b4                osl_autoSwizzleImages
 .data          0x0000000008a288b8       0x2c c:/devkitPro/devkitPSP/psp/sdk/lib\libosl.a(text.o)
                0x0000000008a288b8                osl_textBkColor
                0x0000000008a288c0                osl_sceFontInfo
                0x0000000008a288bc                osl_textColor
 .data          0x0000000008a288e4        0xc c:/devkitPro/devkitPSP/psp/sdk/lib\libosl.a(vram_mgr.o)
                0x0000000008a288ec                osl_useVramManager
                0x0000000008a288e4                osl_vramBase
                0x0000000008a288e8                osl_vramSize
 .data          0x0000000008a288f0        0x4 c:/devkitPro/devkitPSP/psp/sdk/lib\libosl.a(audio.o)
                0x0000000008a288f0                osl_audioDefaultNumSamples
 .data          0x0000000008a288f4       0x38 c:/devkitPro/devkitPSP/psp/sdk/lib\libosl.a(VirtualFile.o)
                0x0000000008a288f4                VF_MEMORY
                0x0000000008a28900                vfsMemory
                0x0000000008a288f8                osl_defaultVirtualFileSource
                0x0000000008a288fc                osl_tempFileName
 .data          0x0000000008a2892c       0x30 c:/devkitPro/devkitPSP/psp/sdk/lib\libosl.a(vfsFile.o)
                0x0000000008a2892c                VF_FILE
                0x0000000008a28930                vfsFile
 .data          0x0000000008a2895c        0x4 c:/devkitPro/devkitPSP/psp/sdk/lib\libosl.a(oslHandleLoadNoFailError.o)
                0x0000000008a2895c                osl_noFailCallback
 .data          0x0000000008a28960       0x20 c:/devkitPro/devkitPSP/psp/sdk/lib\libpng.a(pngrtran.o)
 .data          0x0000000008a28980       0x20 c:/devkitPro/devkitPSP/psp/sdk/lib\libpng.a(pngrutil.o)
 .data          0x0000000008a289a0      0x300 c:/devkitPro/devkitPSP/psp/sdk/lib\libpng.a(pngtrans.o)
 .data          0x0000000008a28ca0       0x3c c:/devkitPro/devkitPSP/psp/sdk/lib\libz.a(trees.o)
 *fill*         0x0000000008a28cdc        0x4 00
 .data          0x0000000008a28ce0      0x380 c:/devkitPro/devkitPSP/psp/sdk/lib\libpspgu.a(sceGuInit.o)
                0x0000000008a28ce0                ge_init_list
 .data          0x0000000008a29060       0x40 c:/devkitPro/devkitPSP/psp/sdk/lib\libpspgu.a(sceGuStart.o)
 .data          0x0000000008a290a0       0x40 c:/devkitPro/devkitPSP/psp/sdk/lib\libpspgu.a(guInternal.o)
                0x0000000008a290a0                light_settings
 .data          0x0000000008a290e0        0x4 c:/devkitpro/devkitpsp/bin/../lib/gcc/psp/4.1.2/../../../../psp/lib\libstdc++.a(eh_term_handler.o)
                0x0000000008a290e0                __cxxabiv1::__terminate_handler
 .data          0x0000000008a290e4        0x4 c:/devkitpro/devkitpsp/bin/../lib/gcc/psp/4.1.2/../../../../psp/lib\libstdc++.a(eh_unex_handler.o)
                0x0000000008a290e4                __cxxabiv1::__unexpected_handler
 .data          0x0000000008a290e8        0x4 c:/devkitpro/devkitpsp/bin/../lib/gcc/psp/4.1.2/../../../../psp/lib\libc.a(ctype_.o)
                0x0000000008a290e8                __ctype_ptr
 *fill*         0x0000000008a290ec        0x4 00
 .data          0x0000000008a290f0      0x400 c:/devkitpro/devkitpsp/bin/../lib/gcc/psp/4.1.2/../../../../psp/lib\libc.a(impure.o)
 .data          0x0000000008a294f0      0x410 c:/devkitpro/devkitpsp/bin/../lib/gcc/psp/4.1.2/../../../../psp/lib\libc.a(mallocr.o)
                0x0000000008a298fc                __malloc_sbrk_base
                0x0000000008a294f0                __malloc_av_
                0x0000000008a298f8                __malloc_trim_threshold
 .data          0x0000000008a29900        0x8 c:/devkitpro/devkitpsp/bin/../lib/gcc/psp/4.1.2/../../../../psp/lib\libc.a(tzvars.o)
                0x0000000008a29900                _tzname
 .data          0x0000000008a29908      0x248 c:/devkitpro/devkitpsp/bin/../lib/gcc/psp/4.1.2/../../../../psp/lib\libc.a(vxprintf.o)
 .data          0x0000000008a29b50       0x40 c:/devkitpro/devkitpsp/bin/../lib/gcc/psp/4.1.2/../../../../psp/lib\libc.a(gettzinfo.o)
 .data          0x0000000008a29b90       0x10 c:/devkitpro/devkitpsp/bin/../lib/gcc/psp/4.1.2/../../../../psp/lib\libc.a(locale.o)
                0x0000000008a29b90                __mb_cur_max
                0x0000000008a29b94                __lc_ctype
 *(.gnu.linkonce.d.*personality*)

.data1
 *(.data1)
                0x0000000008a29ba0                . = .
                0x0000000008a31b90                _gp = (ALIGN (0x10) + 0x7ff0)

.got
 *(.got.plt)
 *(.got)

.sdata          0x0000000008a29ba0      0x248
 *(.sdata .sdata.* .gnu.linkonce.s.*)
 .sdata         0x0000000008a29ba0       0xb8 c:/devkitPro/devkitPSP/psp/sdk/lib\libpng.a(png.o)
                0x0000000008a29ba8                png_tRNS
                0x0000000008a29bf8                png_iTXt
                0x0000000008a29c30                png_IEND
                0x0000000008a29c08                png_hIST
                0x0000000008a29c10                png_gAMA
                0x0000000008a29c20                png_bKGD
                0x0000000008a29bc8                png_sPLT
                0x0000000008a29bd0                png_sBIT
                0x0000000008a29be0                png_sCAL
                0x0000000008a29c28                png_PLTE
                0x0000000008a29c48                png_sig
                0x0000000008a29c00                png_iCCP
                0x0000000008a29ba0                png_zTXt
                0x0000000008a29c40                png_IHDR
                0x0000000008a29bb0                png_tIME
                0x0000000008a29c18                png_cHRM
                0x0000000008a29be8                png_pCAL
                0x0000000008a29bc0                png_sRGB
                0x0000000008a29bb8                png_tEXt
                0x0000000008a29bd8                png_pHYs
                0x0000000008a29c38                png_IDAT
                0x0000000008a29bf0                png_oFFs
 .sdata         0x0000000008a29c58       0x88 c:/devkitPro/devkitPSP/psp/sdk/lib\libpng.a(pngrtran.o)
 .sdata         0x0000000008a29ce0        0x8 c:/devkitPro/devkitPSP/psp/sdk/lib\libpng.a(pngrutil.o)
 .sdata         0x0000000008a29ce8       0xa0 c:/devkitPro/devkitPSP/psp/sdk/lib\libpng.a(pngset.o)
 .sdata         0x0000000008a29d88       0x20 c:/devkitPro/devkitPSP/psp/sdk/lib\libpng.a(pngwrite.o)
 .sdata         0x0000000008a29da8       0x38 c:/devkitPro/devkitPSP/psp/sdk/lib\libpng.a(pngwutil.o)
 .sdata         0x0000000008a29de0        0x8 c:/devkitpro/devkitpsp/bin/../lib/gcc/psp/4.1.2/../../../../psp/lib\libc.a(impure.o)
                0x0000000008a29de4                _global_impure_ptr
                0x0000000008a29de0                _impure_ptr

.lit8
 *(.lit8)

.lit4
 *(.lit4)
                0x0000000008a29de8                _edata = .
                0x0000000008a29de8                PROVIDE (edata, .)
                0x0000000008a29de8                __bss_start = .
                0x0000000008a29de8                _fbss = .

.sbss           0x0000000008a29de8        0x0
                0x0000000008a29de8                PROVIDE (__sbss_start, .)
                0x0000000008a29de8                PROVIDE (___sbss_start, .)
 *(.dynsbss)
 *(.sbss .sbss.* .gnu.linkonce.sb.*)
 *(.scommon)
                0x0000000008a29de8                PROVIDE (__sbss_end, .)
                0x0000000008a29de8                PROVIDE (___sbss_end, .)

.bss            0x0000000008a29e00   0x321e78
 *(.dynbss)
 *(.bss .bss.* .gnu.linkonce.b.*)
 .bss           0x0000000008a29e00       0x1c c:/devkitpro/devkitpsp/bin/../lib/gcc/psp/4.1.2/crtbegin.o
 .bss           0x0000000008a29e1c       0x34 gbcore/apu.o
 .bss           0x0000000008a29e50        0x4 gbcore/cheat.o
                0x0000000008a29e50                cheat_enable
 .bss           0x0000000008a29e54        0x4 gbcore/gb.o
                0x0000000008a29e54                gb_lastVramCrc
 .bss           0x0000000008a29e58        0x4 gbcore/mbc.o
                0x0000000008a29e58                mbc_write
 .bss           0x0000000008a29e5c       0x3c gbcore/sgb.o
                0x0000000008a29e68                sgb_command
                0x0000000008a29e8c                sgb_readingcontrol
                0x0000000008a29e84                sgb_multiplayer
                0x0000000008a29e64                col0_used
                0x0000000008a29e90                sgb_mask
                0x0000000008a29e5c                cycles_SGB
                0x0000000008a29e78                packets_received
                0x0000000008a29e94                sgb_palette_invalidated
                0x0000000008a29e80                sgb_index
                0x0000000008a29e88                sgb_fourplayers
                0x0000000008a29e7c                sgb_state
                0x0000000008a29e6c                sgb_CGB_support
                0x0000000008a29e60                border_uploaded
                0x0000000008a29e74                bits_received
                0x0000000008a29e70                bit_received
 .bss           0x0000000008a29e98      0x5a8 cpu/z80.o
                0x0000000008a29e9c                z80_cycle_count
                0x0000000008a29e98                z80_exec
                0x0000000008a29ea0                z80_requested_cycles
                0x0000000008a29ea4                after_EI
 .bss           0x0000000008a2a440        0x2 memz80.o
                0x0000000008a2a440                data_bus_pullup
                0x0000000008a2a441                data_bus_pulldown
 *fill*         0x0000000008a2a442        0x2 00
 .bss           0x0000000008a2a444       0x14 render.o
 .bss           0x0000000008a2a458        0xc sound/sound.o
                0x0000000008a2a458                sound_justChange
 .bss           0x0000000008a2a464      0x170 sound/sn76489.o
 .bss           0x0000000008a2a5d4    0x64238 sound/emu2413.o
 .bss           0x0000000008a8e80c     0x7840 sound/ym2413.o
 .bss           0x0000000008a9604c        0x4 sound/fmintf.o
 .bss           0x0000000008a96050        0x4 psp/gameboy_render.o
 .bss           0x0000000008a96054        0x8 psp/VideoGu.o
                0x0000000008a96054                videoInited
 .bss           0x0000000008a9605c        0x8 psp/Controls.o
                0x0000000008a9605c                count
 *fill*         0x0000000008a96064        0x4 00
 .bss           0x0000000008a96068       0x20 psp/PspSound.o
                0x0000000008a96068                nbreSamples
                0x0000000008a96080                total2
                0x0000000008a96074                soundInited
                0x0000000008a96070                sndThid
                0x0000000008a96078                total1
                0x0000000008a9606c                ptrSample
 .bss           0x0000000008a96088       0x20 psp/SMS.o
                0x0000000008a96098                gblCpuCycles
                0x0000000008a9609c                gblFramerate
                0x0000000008a96094                gblNewGame
                0x0000000008a960a0                gblVirtualFramerate
                0x0000000008a9608c                frameReady
                0x0000000008a96088                systemInit
                0x0000000008a96090                gblMachineType
 .bss           0x0000000008a960a8        0x4 psp/main.o
                0x0000000008a960a8                gbUsbAvailable
 .bss           0x0000000008a960ac      0x1b0 psp/menuplus.o
                0x0000000008a960ec                msgAboutTextOffset
                0x0000000008a960ac                menuDebugRamShow
                0x0000000008a960c0                ftStandard
                0x0000000008a960cc                menuMainSelectedOption
                0x0000000008a960dc                menuStatusBarMessage
                0x0000000008a960f8                menuSoundBoxOpen
                0x0000000008a960fc                menuSoundBoxPosition
                0x0000000008a960bc                imgBack
                0x0000000008a960e4                gblModeColorIt
                0x0000000008a960f0                msgAboutTextOffsetDisplay
                0x0000000008a960b0                imgIcons
                0x0000000008a960e0                gblConfigAutoShowCrc
                0x0000000008a960e8                menuDisplaySpecialMessage
                0x0000000008a960d0                menuStatusPosition
                0x0000000008a960f4                msgAboutTextHeight
                0x0000000008a960c8                menuCurrentWindow
                0x0000000008a960b4                imgNumbers
                0x0000000008a960c4                ftGlow
                0x0000000008a960d4                menuStatusDrawn
                0x0000000008a960b8                imgBord
                0x0000000008a960d8                menuStickMessageDisplayed
 .bss           0x0000000008a9625c       0x64 psp/menuplus2.o
                0x0000000008a9625c                menuFileSelectCurrentMenu
                0x0000000008a9626c                myPlacesModified
                0x0000000008a96264                cPlaces
                0x0000000008a96268                nPlacesTypes
                0x0000000008a96260                nbPlaces
 .bss           0x0000000008a962c0        0xc psp/config.o
                0x0000000008a962c4                arretdurgence
                0x0000000008a962c8                trouveLabel
                0x0000000008a962c0                config_referenceConfig
 *fill*         0x0000000008a962cc        0x4 00
 .bss           0x0000000008a962d0    0x14df8 psp/sound.o
                0x0000000008aab0a0                bufferValue
                0x0000000008aab0b8                songType
                0x0000000008a96c70                menu_zipfilename
                0x0000000008a9707c                musicEnabled
                0x0000000008a966dc                gblMusicPath
                0x0000000008aab0b0                musicChannelVolume
                0x0000000008a97078                menu_musicdata
                0x0000000008a9708c                snd_buffer
                0x0000000008aab0a4                lastSample
                0x0000000008a97080                musicThreadFrequency
                0x0000000008aab0bc                currentSongFile
                0x0000000008aab0a8                menu_filenumber
                0x0000000008aab098                buffer2
                0x0000000008a97074                menu_lastNumber
                0x0000000008aab0ac                menu_playlistcount
                0x0000000008a96ae0                menuConfigUserDefault
                0x0000000008a97088                musicRequestNewSong
                0x0000000008a97084                musicThreadEnd
                0x0000000008a962d8                cpu_readport16
                0x0000000008a97070                menu_musiclen
                0x0000000008a96ae8                gymCodec
                0x0000000008a96bec                menuSoundArtist
                0x0000000008a96ae4                menuConfigUserMachineDefault
                0x0000000008a96aec                menuSoundTitle
                0x0000000008a96b6c                menuSoundAlbum
                0x0000000008a962d0                cpu_writemem16
                0x0000000008aab0b4                isVgmInited
                0x0000000008aa708c                tmp_buffer
                0x0000000008a962d4                cpu_writeport16
                0x0000000008aab090                buffer1
                0x0000000008a96c6c                menuSoundBoxActive
                0x0000000008a96adc                menuConfigDefault
                0x0000000008a962dc                gblRomPath
 .bss           0x0000000008aab0c8       0x10 psp/gym/gym.o
                0x0000000008aab0c8                CODEC_GYM::cfg_ym2612_interp
                0x0000000008aab0d0                CODEC_GYM::cfg_fade_length
                0x0000000008aab0cc                CODEC_GYM::cfg_psg_interp
 .bss           0x0000000008aab0d8     0x3bcc psp/gym/gym_play.o
                0x0000000008aaeca0                GYM_Dumping
                0x0000000008aaec9c                VDP_Current_Line
                0x0000000008aae2d8                Seg_Lenght
                0x0000000008aac9d8                Seg_R
                0x0000000008aab0d8                Seg_L
                0x0000000008aae2dc                Sound_Extrapol
 .bss           0x0000000008aaeca4        0x4 psp/gym/psg.o
                0x0000000008aaeca4                PSG_Len
 .bss           0x0000000008aaeca8        0x4 psp/gym/ym2612.o
                0x0000000008aaeca8                YM_Len
 .bss           0x0000000008aaecac     0x8070 psp/vgm/mame_fm.o
 .bss           0x0000000008ab6d1c    0x6312c psp/vgm/emu2413.o
 .bss           0x0000000008b19e48      0x280 psp/vgm/sn76489.o
 .bss           0x0000000008b1a0c8     0x7878 psp/vgm/mame_ym2151.o
 .bss           0x0000000008b21940     0xb588 psp/vgm/In_vgm.o
                0x0000000008b21940                paused
                0x0000000008b219b0                PauseBetweenTracksCounter
                0x0000000008b2194c                opll
                0x0000000008b21990                FileInfoJapanese
                0x0000000008b219d0                SN76489_Pan
                0x0000000008b21a24                YM2151Channels
                0x0000000008b21960                NumLoops
                0x0000000008b219cc                SN76489_VolumeArray
                0x0000000008b219bc                MutePersistent
                0x0000000008b21a1c                YM2413Channels
                0x0000000008b21994                UseMB
                0x0000000008b21a28                TrackTitleFormat
                0x0000000008b21968                LoopLengthInms
                0x0000000008b2195c                FileRate
                0x0000000008b21964                NumLoopsDone
                0x0000000008b219c4                MLShowFM
                0x0000000008b2ce90                SamplesTillNextRead
                0x0000000008b21974                PSGClock
                0x0000000008b21958                PlaybackRate
                0x0000000008b2ce98                FractionalSamplesTillNextRead
                0x0000000008b219ac                PauseBetweenTracksms
                0x0000000008b21a20                YM2612Channels
                0x0000000008b21998                AutoMB
                0x0000000008b21980                YM2151Clock
                0x0000000008b21a18                RandomisePanning
                0x0000000008b2199c                ForceMBOpen
                0x0000000008b21978                YM2413Clock
                0x0000000008b21a8c                CurrentURL
                0x0000000008b219c0                MLJapanese
                0x0000000008b2ce94                WaitFactor
                0x0000000008b219b4                LoopingFadeOutCounter
                0x0000000008b21954                TrackLengthInms
                0x0000000008b21988                FMChipsInited
                0x0000000008b219a8                ImmediateUpdate
                0x0000000008b21950                killDecodeThread
                0x0000000008b21948                VGMFile
                0x0000000008b2196c                LoopOffset
                0x0000000008b219c8                MLType
                0x0000000008b2197c                YM2612Clock
                0x0000000008b219e0                YM2413_Pan
                0x0000000008b219b8                LoopingFadeOutTotal
                0x0000000008b219a0                YM2413HiQ
                0x0000000008b21984                FMChips
                0x0000000008b21e8c                FilenameForInfoDlg
                0x0000000008b2198c                SeekToSampleNumber
                0x0000000008b21e90                GD3Strings
                0x0000000008b2ce9c                currentSampleValue
                0x0000000008b21944                vgmSampleRate
                0x0000000008b21970                VGMDataOffset
                0x0000000008b219a4                Overdrive
 .bss           0x0000000008b2cec8      0x138 c:/devkitPro/devkitPSP/psp/sdk/lib\libosl.a(oslib.o)
                0x0000000008b2ced4                osl_exitCallback
                0x0000000008b2cef0                osl_vblShouldSwap
                0x0000000008b2ced0                osl_powerCallback
                0x0000000008b2cef8                osl_vsyncEnabled
                0x0000000008b2cef4                osl_maxFrameskip
                0x0000000008b2cee0                osl_vblCountMultiple
                0x0000000008b2cedc                osl_vblCount
                0x0000000008b2cecc                osl_vblInterruptNumber
                0x0000000008b2ced8                osl_noFail
                0x0000000008b2cefc                osl_frameskip
                0x0000000008b2ceec                osl_nbSkippedFrames
                0x0000000008b2cee8                osl_skip
                0x0000000008b2cec8                osl_quit
                0x0000000008b2cee4                osl_vblCallCount
 .bss           0x0000000008b2d000       0x1c c:/devkitPro/devkitPSP/psp/sdk/lib\libosl.a(drawing.o)
                0x0000000008b2d004                osl_curTexture
                0x0000000008b2d018                osl_alphaTestEnabled
                0x0000000008b2d014                osl_isDrawingStarted
                0x0000000008b2d000                osl_list
                0x0000000008b2d00c                osl_curDrawBuf
                0x0000000008b2d008                osl_curPalette
                0x0000000008b2d010                osl_curDispBuf
 .bss           0x0000000008b2d01c       0x10 c:/devkitPro/devkitPSP/psp/sdk/lib\libosl.a(text.o)
                0x0000000008b2d024                osl_consolePosX
                0x0000000008b2d028                osl_consolePosY
                0x0000000008b2d020                osl_sceFont
                0x0000000008b2d01c                osl_curFont
 .bss           0x0000000008b2d02c        0x8 c:/devkitPro/devkitPSP/psp/sdk/lib\libosl.a(vram_mgr.o)
                0x0000000008b2d030                osl_vramBlocksNb
                0x0000000008b2d02c                osl_vramBlocksMax
 .bss           0x0000000008b2d034       0xb4 c:/devkitPro/devkitPSP/psp/sdk/lib\libosl.a(audio.o)
                0x0000000008b2d038                osl_suspendNumber
                0x0000000008b2d034                osl_audioOldPowerCallback
 .bss           0x0000000008b2d0e8        0x8 c:/devkitPro/devkitPSP/psp/sdk/lib\libosl.a(VirtualFile.o)
                0x0000000008b2d0e8                VirtualFileSourcesNb
                0x0000000008b2d0ec                osl_virtualFileListNumber
 .bss           0x0000000008b2d0f0        0x4 c:/devkitPro/devkitPSP/psp/sdk/lib\libosl.a(gif_err.o)
                0x0000000008b2d0f0                _GifError
 .bss           0x0000000008b2d0f4        0x1 c:/devkitpro/devkitpsp/bin/../lib/gcc/psp/4.1.2/../../../../psp/lib\libstdc++.a(vterminate.o)
 *fill*         0x0000000008b2d0f5        0x3 00
 .bss           0x0000000008b2d0f8      0x808 c:/devkitpro/devkitpsp/bin/../lib/gcc/psp/4.1.2/../../../../psp/lib\libstdc++.a(eh_alloc.o)
 .bss           0x0000000008b2d900        0x8 c:/devkitpro/devkitpsp/bin/../lib/gcc/psp/4.1.2/../../../../psp/lib\libstdc++.a(eh_globals.o)
 .bss           0x0000000008b2d908        0x4 c:/devkitpro/devkitpsp/bin/../lib/gcc/psp/4.1.2/../../../../psp/lib\libstdc++.a(new_handler.o)
                0x0000000008b2d908                __new_handler
 .bss           0x0000000008b2d90c       0x34 c:/devkitpro/devkitpsp/bin/../lib/gcc/psp/4.1.2/../../../../psp/lib\libc.a(mallocr.o)
                0x0000000008b2d90c                __malloc_top_pad
                0x0000000008b2d910                __malloc_max_sbrked_mem
                0x0000000008b2d918                __malloc_current_mallinfo
                0x0000000008b2d914                __malloc_max_total_mem
 .bss           0x0000000008b2d940        0x8 c:/devkitpro/devkitpsp/bin/../lib/gcc/psp/4.1.2/../../../../psp/lib\libc.a(mlock.o)
 .bss           0x0000000008b2d948        0x8 c:/devkitpro/devkitpsp/bin/../lib/gcc/psp/4.1.2/../../../../psp/lib\libc.a(tzvars.o)
                0x0000000008b2d948                _daylight
                0x0000000008b2d94c                _timezone
 .bss           0x0000000008b2d950       0x10 c:/devkitpro/devkitpsp/bin/../lib/gcc/psp/4.1.2/../../../../psp/lib\libc.a(_sbrk.o)
 .bss           0x0000000008b2d960     0x5000 c:/devkitpro/devkitpsp/bin/../lib/gcc/psp/4.1.2/../../../../psp/lib\libc.a(fdman.o)
 .bss           0x0000000008b32960        0xc c:/devkitpro/devkitpsp/bin/../lib/gcc/psp/4.1.2/../../../../psp/lib\libc.a(locale.o)
                0x0000000008b32960                __nlocale_changed
                0x0000000008b32964                __mlocale_changed
                0x0000000008b32968                _PathLocale
 .bss           0x0000000008b3296c        0x4 c:/devkitpro/devkitpsp/bin/../lib/gcc/psp/4.1.2/../../../../psp/lib\libc.a(pipe.o)
 .bss           0x0000000008b32970      0x404 c:/devkitpro/devkitpsp/bin/../lib/gcc/psp/4.1.2/../../../../psp/lib\libc.a(pspcwd.o)
                0x0000000008b32970                __psp_cwd
 .bss           0x0000000008b32d74       0xc0 c:/devkitpro/devkitpsp/bin/../lib/gcc/psp/4.1.2\libgcc.a(unwind-dw2.o)
 .bss           0x0000000008b32e34        0xc c:/devkitpro/devkitpsp/bin/../lib/gcc/psp/4.1.2\libgcc.a(unwind-dw2-fde.o)
 *(COMMON)
 COMMON         0x0000000008b32e40    0x803d4 gbcore/apu.o
                0x0000000008b32e40                snd_que_count
                0x0000000008b32e44                snd_stat_cpy
                0x0000000008b32f30                snd_stat_tmp
                0x0000000008b3301c                snd_stat
                0x0000000008b33108                snd_b_lowpass
                0x0000000008b3310c                snd_b_enable
                0x0000000008b33110                snd_mem
                0x0000000008b33210                snd_write_que
                0x0000000008bb3210                snd_bef_clock
 COMMON         0x0000000008bb3214    0x58304 gbcore/cheat.o
                0x0000000008bb3214                cheats
                0x0000000008bbb514                cheat_map
                0x0000000008bcb514                cheat_map_n
                0x0000000008c0b514                nCheats
 COMMON         0x0000000008c0b518     0xc3d4 gbcore/cpu.o
                0x0000000008c0b518                _ff72
                0x0000000008c0b51c                gb2z80
                0x0000000008c0b61c                oam
                0x0000000008c0b6bc                b_dma_first
                0x0000000008c0b6c0                dma_dest_bank
                0x0000000008c0b6c4                spare_oam
                0x0000000008c0b6dc                z802gb
                0x0000000008c0b7dc                c_regs_I
                0x0000000008c0b7e0                total_clock
                0x0000000008c0b7e4                _ff73
                0x0000000008c0b7e8                sys_clock
                0x0000000008c0b7ec                c_regs_SP
                0x0000000008c0b7f0                dma_src_bank
                0x0000000008c0b7f4                stack
                0x0000000008c0b874                tmp_clocks
                0x0000000008c0b878                _ff75
                0x0000000008c0b87c                last_int
                0x0000000008c0b880                rp_data
                0x0000000008c0b884                ext_mem
                0x0000000008c0b894                b_trace
                0x0000000008c0b898                ram_bank
                0x0000000008c0b89c                div_clock
                0x0000000008c0b8a0                vram_bank
                0x0000000008c0b8a4                dma_executing
                0x0000000008c0b8a5                _ff6c
                0x0000000008c0b8a6                c_regs_HL
                0x0000000008c0b8a8                speed_change
                0x0000000008c0b8a9                _ff74
                0x0000000008c0b8aa                int_invoke_next
                0x0000000008c0b8ac                rp_time
                0x0000000008c0b8b0                dma_rest
                0x0000000008c0b8b4                c_regs_PC
                0x0000000008c0b8b8                gdma_rest
                0x0000000008c0b8bc                speed
                0x0000000008c0b8bd                int_disable_next
                0x0000000008c0b8c0                _c_regs
                0x0000000008c0b8d0                seri_occer
                0x0000000008c0b8d4                ram
                0x0000000008c138d4                halt
                0x0000000008c138d6                c_regs_AF
                0x0000000008c138d8                vram
                0x0000000008c178d8                c_regs_BC
                0x0000000008c178dc                dma_dest
                0x0000000008c178e0                c_regs_DE
                0x0000000008c178e4                rest_clock
                0x0000000008c178e8                dma_src
 COMMON         0x0000000008c178ec    0x20684 gbcore/gb.o
                0x0000000008c178ec                hook_ext
                0x0000000008c178f0                cg_regs
                0x0000000008c17900                now_gb_mode
                0x0000000008c17904                gbSkip
                0x0000000008c17908                re_render
                0x0000000008c1790c                use_gba
                0x0000000008c17910                vframe_mem
                0x0000000008c37910                g_regs
                0x0000000008c37928                dmy
                0x0000000008c37f68                hook_proc
 COMMON         0x0000000008c37f70      0x9d0 gbcore/lcd.o
                0x0000000008c37f70                now_win_line
                0x0000000008c37f74                inval_col_pal
                0x0000000008c37fb4                tilePalPalette
                0x0000000008c38134                tilePalCrc
                0x0000000008c38164                ztbls
                0x0000000008c381b0                tilePalPalette_invalid
                0x0000000008c381e0                layer_enable
                0x0000000008c381e4                gbc_cram_expand_table
                0x0000000008c38204                currentPalCache
                0x0000000008c38234                mul
                0x0000000008c38238                col_pal
                0x0000000008c382b8                tilePalList
                0x0000000008c38438                sprite_count
                0x0000000008c3843c                tileMapTileList
                0x0000000008c3873c                tilePalPalette_real
                0x0000000008c388bc                real_col_pal
                0x0000000008c3893c                n_mpal16
 COMMON         0x0000000008c38940       0x2d gbcore/mbc.o
                0x0000000008c38940                mbc7_idle
                0x0000000008c38941                mbc7_state
                0x0000000008c38942                mbc3_dayl
                0x0000000008c38944                sram_page
                0x0000000008c38948                ext_is_ram
                0x0000000008c3894a                mbc7_dat
                0x0000000008c3894c                mbc3_latch
                0x0000000008c3894d                mbc1_16_8
                0x0000000008c3894e                mbc3_sec
                0x0000000008c3894f                mbc7_adr
                0x0000000008c38950                mbc7_buf
                0x0000000008c38952                mbc7_count
                0x0000000008c38953                mbc3_min
                0x0000000008c38954                mbc3_timer
                0x0000000008c38955                mbc3_hour
                0x0000000008c38956                huc1_16_8
                0x0000000008c38957                mbc1_dat
                0x0000000008c38958                mbc3_dayh
                0x0000000008c3895c                mbc5_dat
                0x0000000008c38960                mbc7_sk
                0x0000000008c38961                mbc7_cs
                0x0000000008c38962                mbc7_op_code
                0x0000000008c38963                mbc7_write_enable
                0x0000000008c38964                mbc7_ret
                0x0000000008c38968                rom_page
                0x0000000008c3896c                huc1_dat
 *fill*         0x0000000008c3896d        0x3 00
 COMMON         0x0000000008c38970    0x20039 gbcore/rom.o
                0x0000000008c38970                info
                0x0000000008c38990                first_page
                0x0000000008c38994                dat
                0x0000000008c38998                sram_space
                0x0000000008c5899c                org_gbtype
                0x0000000008c589a0                sgb_mode
                0x0000000008c589a4                sram
                0x0000000008c589a8                b_loaded
 *fill*         0x0000000008c589a9        0x3 00
 COMMON         0x0000000008c589ac    0x24c60 gbcore/sgb.o
                0x0000000008c589ac                sgb_palette_real
                0x0000000008c58aac                sgb_palette_memory
                0x0000000008c59aac                sgb_palette_inval
                0x0000000008c59bac                sgb_buffer
                0x0000000008c59c1c                sgb_border
                0x0000000008c5a41c                sgb_palette
                0x0000000008c5a51c                sgb_borderchar
                0x0000000008c5c51c                sgb_screenbuffer
                0x0000000008c5d55c                sgb_ATF_list
                0x0000000008c614a4                sgb_border_buffer
                0x0000000008c7d4a4                sgb_ATF
 COMMON         0x0000000008c7d60c      0x204 cpu/z80.o
                0x0000000008c7d60c                cpu_readmap
                0x0000000008c7d70c                cpu_writemap
                0x0000000008c7d80c                z80_ICount
 COMMON         0x0000000008c7d810     0x1004 pio.o
                0x0000000008c7d810                io_current
                0x0000000008c7d814                io_lut
 COMMON         0x0000000008c7e814     0x4084 vdp.o
                0x0000000008c7e814                vdp
 COMMON         0x0000000008c82898    0x70750 render.o
                0x0000000008c82898                linebuf
                0x0000000008c8289c                bg_pattern_cache
                0x0000000008ca289c                bp_lut
                0x0000000008ce289c                pixel
                0x0000000008ce28dc                bg_list_index
                0x0000000008ce28e0                internal_buffer
                0x0000000008ce29e0                render_obj
                0x0000000008ce29e4                bg_name_dirty
                0x0000000008ce2be4                lut
                0x0000000008cf2be4                bg_name_list
                0x0000000008cf2fe4                render_bg
 COMMON         0x0000000008cf2fe8     0x2818 sms.o
                0x0000000008cf2fe8                sms
                0x0000000008cf5000                dummy_read
                0x0000000008cf5400                dummy_write
 COMMON         0x0000000008cf5800     0x80ec system.o
                0x0000000008cf5800                cart
                0x0000000008cfd818                bitmap
                0x0000000008cfd8d8                input
                0x0000000008cfd8e8                frame_underclock
 COMMON         0x0000000008cfd8ec       0x44 sound/sound.o
                0x0000000008cfd8ec                smptab
                0x0000000008cfd8f0                snd
                0x0000000008cfd92c                smptab_len
 COMMON         0x0000000008cfd930       0x41 sound/fmintf.o
                0x0000000008cfd930                fm_context
 *fill*         0x0000000008cfd971        0x3 00
 COMMON         0x0000000008cfd974       0x10 psp/gameboy_render.o
                0x0000000008cfd974                cur_time
                0x0000000008cfd978                sensor_y
                0x0000000008cfd97c                pad_state
                0x0000000008cfd980                sensor_x
 *fill*         0x0000000008cfd984       0x3c 00
 COMMON         0x0000000008cfd9c0       0x10 psp/VideoGu.o
                0x0000000008cfd9c0                Screen
                0x0000000008cfd9c8                ScreenTemp
 COMMON         0x0000000008cfd9d0     0xc000 psp/PspSound.o
                0x0000000008cfd9d0                audioOut
                0x0000000008d019d0                audioOutTemp
 COMMON         0x0000000008d099d0      0x104 psp/SMS.o
                0x0000000008d099d0                pixel_values
                0x0000000008d09ad0                sram_crc
 *fill*         0x0000000008d09ad4        0xc 00
 COMMON         0x0000000008d09ae0     0x1f04 psp/menuplus.o
                0x0000000008d09ae0                menuFileSelectFileName
                0x0000000008d09ee0                menuSoundBoxWidth
                0x0000000008d09ef0                dirEntry
                0x0000000008d0a050                fadeReason
                0x0000000008d0a054                menuStatusBarMessageInd
                0x0000000008d0a154                menuPressedKeysAutorepeatDelay
                0x0000000008d0a158                msgAboutArrowAlpha
                0x0000000008d0a160                gblChoice
                0x0000000008d0a174                menuPlusTerminated
                0x0000000008d0a178                menuTimeZone
                0x0000000008d0a17c                menuIsInGame
                0x0000000008d0a180                windowBoxPalette
                0x0000000008d0a240                menuUpdateRender
                0x0000000008d0a244                menuTempMessageText
                0x0000000008d0a344                menuStatusMessage
                0x0000000008d0a40c                menuConfig
                0x0000000008d0ad28                menuColorCursor
                0x0000000008d0ad38                winMsgBox
                0x0000000008d0ad6c                menuTempStateMemory
                0x0000000008d0ad70                menuPressedKeysAutorepeatMask
                0x0000000008d0ad74                menuFileSelectPath
                0x0000000008d0b174                fadeDirection
                0x0000000008d0b178                menuPressedKeys
                0x0000000008d0b1a0                gblHint
                0x0000000008d0b1ac                gblMenuAlpha
                0x0000000008d0b1b0                menuRamStateFileName
                0x0000000008d0b5b0                menuColorSubmenuTitle
                0x0000000008d0b5b4                menuStatusActive
                0x0000000008d0b5b8                gblFlagLoadParams
                0x0000000008d0b5bc                menuMusicLocked
                0x0000000008d0b5c0                msgBoxArrowOffset
                0x0000000008d0b5c4                menuAnimateCursor
                0x0000000008d0b5c8                menuFrameNb
                0x0000000008d0b5cc                menuPressedKeysAutorepeatInit
                0x0000000008d0b5d0                fadeLevel
                0x0000000008d0b5d4                gblColorItPaletteFileName
                0x0000000008d0b9d4                menuDayLightSaving
                0x0000000008d0b9d8                alphaSave
                0x0000000008d0b9e0                menuRamStateMemory
 COMMON         0x0000000008d0b9e4        0xc psp/menuplus2.o
                0x0000000008d0b9e4                menuFileSelectSubMenu
                0x0000000008d0b9e8                menuFileSelectSwap
                0x0000000008d0b9ec                stExtentions
 COMMON         0x0000000008d0b9f0      0x9f4 psp/config.o
                0x0000000008d0b9f0                gblFichierConfig
                0x0000000008d0b9f4                menuDefaultExecute
                0x0000000008d0bbf4                chneLabel
                0x0000000008d0bfdc                gblVarName
                0x0000000008d0c1dc                retourScript
                0x0000000008d0c1e0                tempValue
                0x0000000008d0c3e0                gblIndice
 COMMON         0x0000000008d0c3e4      0x400 loadrom.o
                0x0000000008d0c3e4                game_name
 COMMON         0x0000000008d0c7e4     0x90f0 psp/gym/psg.o
                0x0000000008d0c7e4                PSG_Volume_Table
                0x0000000008d0c824                PSG_Improv
                0x0000000008d0c828                PSG_Noise_Step_Table
                0x0000000008d0c838                PSG_Step_Table
                0x0000000008d0d838                PSG_Chan_Enable
                0x0000000008d0d848                PSG_Buf
                0x0000000008d0d850                PSG_SIN_Table
                0x0000000008d15850                PSG
                0x0000000008d158b0                PSG_Enable
                0x0000000008d158b4                PSG_Save
 *fill*         0x0000000008d158d4        0x4 00
 COMMON         0x0000000008d158d8    0x33b5c psp/gym/ym2612.o
                0x0000000008d158d8                DR_TAB
                0x0000000008d15a58                DT_TAB
                0x0000000008d15e58                SIN_TAB
                0x0000000008d19e58                LFO_FREQ_TAB
                0x0000000008d1ae58                LFO_ENV_UP
                0x0000000008d1cd98                en3
                0x0000000008d1cd9c                LFO_INC_TAB
                0x0000000008d1cdbc                in1
                0x0000000008d1cdc0                YM_Buf
                0x0000000008d1cdc8                en1
                0x0000000008d1cdcc                AR_TAB
                0x0000000008d1cfcc                ENV_TAB
                0x0000000008d24fec                FINC_TAB
                0x0000000008d26fec                DECAY_TO_ATTACK
                0x0000000008d2afec                en0
                0x0000000008d2aff0                LFO_ENV_TAB
                0x0000000008d2bff0                YM2612_Improv
                0x0000000008d2bff4                in3
                0x0000000008d2bff8                in2
                0x0000000008d2bffc                Chan_Enable
                0x0000000008d2c014                LFO_FREQ_UP
                0x0000000008d2df54                int_cnt
                0x0000000008d2df58                TL_TAB
                0x0000000008d45f58                INTER_TAB
                0x0000000008d47e98                YM2612
                0x0000000008d49368                in0
                0x0000000008d4936c                DAC_Enable
                0x0000000008d49370                NULL_RATE
                0x0000000008d493f0                en2
                0x0000000008d493f4                SL_TAB
 COMMON         0x0000000008d49434        0xc error.o
                0x0000000008d49434                t_error
 COMMON         0x0000000008d49440      0xb50 c:/devkitPro/devkitPSP/psp/sdk/lib\libosl.a(oslib.o)
                0x0000000008d49440                osl_currentFrameRate
                0x0000000008d49444                osl_keys
                0x0000000008d49448                osl_isinus
                0x0000000008d499ec                osl_icosinus
 COMMON         0x0000000008d49f90       0xc8 c:/devkitPro/devkitPSP/psp/sdk/lib\libosl.a(drawing.o)
                0x0000000008d49f90                osl_currentAlphaCoeff
                0x0000000008d49f94                osl_currentTexWrapV
                0x0000000008d49f98                osl_curBuf
                0x0000000008d49f9c                osl_currentAlphaEffect
                0x0000000008d49fa0                osl_defaultBufferImage
                0x0000000008d49ff0                osl_ditheringEnabled
                0x0000000008d49ff4                osl_secondaryBufferImage
                0x0000000008d4a044                osl_currentTexWrapU
                0x0000000008d4a048                osl_colorKeyEnabled
                0x0000000008d4a04c                osl_bilinearFilterEnabled
                0x0000000008d4a050                osl_colorKeyValue
                0x0000000008d4a054                osl_currentAlphaCoeff2
 COMMON         0x0000000008d4a058       0x20 c:/devkitPro/devkitPSP/psp/sdk/lib\libosl.a(keys.o)
                0x0000000008d4a058                osl_pad
 *fill*         0x0000000008d4a078        0x8 00
 COMMON         0x0000000008d4a080       0x10 c:/devkitPro/devkitPSP/psp/sdk/lib\libosl.a(vfpu.o)
                0x0000000008d4a080                vfpu_vars
 COMMON         0x0000000008d4a090        0x8 c:/devkitPro/devkitPSP/psp/sdk/lib\libosl.a(vram_mgr.o)
                0x0000000008d4a090                osl_vramBlocks
                0x0000000008d4a094                osl_currentVramPtr
 COMMON         0x0000000008d4a098      0x164 c:/devkitPro/devkitPSP/psp/sdk/lib\libosl.a(audio.o)
                0x0000000008d4a098                osl_audioActive
                0x0000000008d4a0b8                osl_filesave
                0x0000000008d4a0d8                osl_audioStandBy
                0x0000000008d4a0dc                osl_audioVoices
 COMMON         0x0000000008d4a1fc       0x58 c:/devkitPro/devkitPSP/psp/sdk/lib\libosl.a(VirtualFile.o)
                0x0000000008d4a1fc                osl_virtualFileList
                0x0000000008d4a200                osl_tempFile
                0x0000000008d4a210                VirtualFileSources
                0x0000000008d4a250                osl_virtualFileListSize
 COMMON         0x0000000008d4a254      0x804 c:/devkitPro/devkitPSP/psp/sdk/lib\libosl.a(oslLoadImageFileGIF.o)
                0x0000000008d4a254                osl_gifLineBuf
                0x0000000008d4aa54                osl_gifTempPalette
 COMMON         0x0000000008d4aa58      0x21c c:/devkitPro/devkitPSP/psp/sdk/lib\libpspgu.a(guInternal.o)
                0x0000000008d4aa58                gu_draw_buffer
                0x0000000008d4aa78                ge_edram_address
                0x0000000008d4aa7c                gu_object_stack
                0x0000000008d4aafc                gu_display_on
                0x0000000008d4ab00                gu_contexts
                0x0000000008d4ac14                gu_states
                0x0000000008d4ac18                gu_object_stack_depth
                0x0000000008d4ac1c                gu_list
                0x0000000008d4ac20                ge_list_executed
                0x0000000008d4ac28                gu_current_frame
                0x0000000008d4ac2c                gu_curr_context
                0x0000000008d4ac30                gu_call_mode
                0x0000000008d4ac34                gu_settings
                0x0000000008d4ac70                gu_init
 COMMON         0x0000000008d4ac74        0x4 c:/devkitpro/devkitpsp/bin/../lib/gcc/psp/4.1.2/../../../../psp/lib\libc.a(reent.o)
                0x0000000008d4ac74                errno
 COMMON         0x0000000008d4ac78     0x1000 c:/devkitpro/devkitpsp/bin/../lib/gcc/psp/4.1.2/../../../../psp/lib\libc.a(fdman.o)
                0x0000000008d4ac78                __psp_descriptormap
                0x0000000008d4bc78                . = ALIGN (0x4)
                0x0000000008d4bc78                . = ALIGN (0x4)
                0x0000000008d4bc78                _end = .
                0x0000000008d4bc78                PROVIDE (end, .)

.stab
 *(.stab)

.stabstr
 *(.stabstr)

.stab.excl
 *(.stab.excl)

.stab.exclstr
 *(.stab.exclstr)

.stab.index
 *(.stab.index)

.stab.indexstr
 *(.stab.indexstr)

.comment        0x0000000000000000     0x4cb6
 *(.comment)
 .comment       0x0000000000000000       0x39 c:/devkitpro/devkitpsp/bin/../lib/gcc/psp/4.1.2/../../../../psp/lib/crt0.o
 .comment       0x0000000000000039       0x39 c:/devkitpro/devkitpsp/bin/../lib/gcc/psp/4.1.2/crtbegin.o
 .comment       0x0000000000000072       0x39 gbcore/apu.o
 .comment       0x00000000000000ab       0x39 gbcore/cheat.o
 .comment       0x00000000000000e4       0x39 gbcore/cpu.o
 .comment       0x000000000000011d       0x39 gbcore/gb.o
 .comment       0x0000000000000156       0x39 gbcore/lcd.o
 .comment       0x000000000000018f       0x39 gbcore/mbc.o
 .comment       0x00000000000001c8       0x39 gbcore/rom.o
 .comment       0x0000000000000201       0x39 gbcore/sgb.o
 .comment       0x000000000000023a       0x39 cpu/z80.o
 .comment       0x0000000000000273       0x39 memz80.o
 .comment       0x00000000000002ac       0x39 pio.o
 .comment       0x00000000000002e5       0x39 vdp.o
 .comment       0x000000000000031e       0x39 render.o
 .comment       0x0000000000000357       0x39 sms.o
 .comment       0x0000000000000390       0x39 system.o
 .comment       0x00000000000003c9       0x39 sound/sound.o
 .comment       0x0000000000000402       0x39 sound/sn76489.o
 .comment       0x000000000000043b       0x39 sound/emu2413.o
 .comment       0x0000000000000474       0x39 sound/ym2413.o
 .comment       0x00000000000004ad       0x39 sound/fmintf.o
 .comment       0x00000000000004e6       0x39 sound/stream.o
 .comment       0x000000000000051f       0x39 psp/gameboy_render.o
 .comment       0x0000000000000558       0x39 psp/VideoGu.o
 .comment       0x0000000000000591       0x39 psp/Controls.o
 .comment       0x00000000000005ca       0x39 psp/PspSound.o
 .comment       0x0000000000000603       0x39 psp/SMS.o
 .comment       0x000000000000063c       0x39 psp/main.o
 .comment       0x0000000000000675       0x39 psp/menuplus.o
 .comment       0x00000000000006ae       0x39 psp/menuplus2.o
 .comment       0x00000000000006e7       0x39 psp/config.o
 .comment       0x0000000000000720       0x39 psp/usb.o
 .comment       0x0000000000000759       0x39 psp/sound.o
 .comment       0x0000000000000792       0x39 fileio.o
 .comment       0x00000000000007cb       0x39 state.o
 .comment       0x0000000000000804       0x39 loadrom.o
 .comment       0x000000000000083d       0x39 unzip/ioapi.o
 .comment       0x0000000000000876       0x39 unzip/unzip.o
 .comment       0x00000000000008af       0x39 psp/gym/gym.o
 .comment       0x00000000000008e8       0x39 psp/gym/gym_play.o
 .comment       0x0000000000000921       0x39 psp/gym/psg.o
 .comment       0x000000000000095a       0x39 psp/gym/ym2612.o
 .comment       0x0000000000000993       0x39 psp/gym/bzlib/blocksort.o
 .comment       0x00000000000009cc       0x39 psp/gym/bzlib/bzlib.o
 .comment       0x0000000000000a05       0x39 psp/gym/bzlib/compress.o
 .comment       0x0000000000000a3e       0x39 psp/gym/bzlib/crctable.o
 .comment       0x0000000000000a77       0x39 psp/gym/bzlib/decompress.o
 .comment       0x0000000000000ab0       0x39 psp/gym/bzlib/huffman.o
 .comment       0x0000000000000ae9       0x39 psp/gym/bzlib/randtable.o
 .comment       0x0000000000000b22       0x39 psp/vgm/mame_fm.o
 .comment       0x0000000000000b5b       0x39 psp/vgm/emu2413.o
 .comment       0x0000000000000b94       0x39 psp/vgm/sn76489.o
 .comment       0x0000000000000bcd       0x39 psp/vgm/mame_ym2151.o
 .comment       0x0000000000000c06       0x39 psp/vgm/In_vgm.o
 .comment       0x0000000000000c3f       0x39 psp/gz.o
 .comment       0x0000000000000c78       0x39 psp/VirtualGz.o
 .comment       0x0000000000000cb1       0x39 psp/deflate.o
 .comment       0x0000000000000cea       0x39 psp/gzio.o
 .comment       0x0000000000000d23       0x39 error.o
 .comment       0x0000000000000d5c       0x39 c:/devkitPro/devkitPSP/psp/sdk/lib\libosl.a(oslib.o)
 .comment       0x0000000000000d95       0x39 c:/devkitPro/devkitPSP/psp/sdk/lib\libosl.a(drawing.o)
 .comment       0x0000000000000dce       0x39 c:/devkitPro/devkitPSP/psp/sdk/lib\libosl.a(image.o)
 .comment       0x0000000000000e07       0x39 c:/devkitPro/devkitPSP/psp/sdk/lib\libosl.a(palette.o)
 .comment       0x0000000000000e40       0x39 c:/devkitPro/devkitPSP/psp/sdk/lib\libosl.a(shape.o)
 .comment       0x0000000000000e79       0x39 c:/devkitPro/devkitPSP/psp/sdk/lib\libosl.a(messagebox.o)
 .comment       0x0000000000000eb2       0x39 c:/devkitPro/devkitPSP/psp/sdk/lib\libosl.a(keys.o)
 .comment       0x0000000000000eeb       0x39 c:/devkitPro/devkitPSP/psp/sdk/lib\libosl.a(vfpu.o)
 .comment       0x0000000000000f24       0x39 c:/devkitPro/devkitPSP/psp/sdk/lib\libosl.a(text.o)
 .comment       0x0000000000000f5d       0x39 c:/devkitPro/devkitPSP/psp/sdk/lib\libosl.a(vram_mgr.o)
 .comment       0x0000000000000f96       0x39 c:/devkitPro/devkitPSP/psp/sdk/lib\libosl.a(audio.o)
 .comment       0x0000000000000fcf       0x39 c:/devkitPro/devkitPSP/psp/sdk/lib\libosl.a(bgm.o)
 .comment       0x0000000000001008       0x39 c:/devkitPro/devkitPSP/psp/sdk/lib\libosl.a(VirtualFile.o)
 .comment       0x0000000000001041       0x39 c:/devkitPro/devkitPSP/psp/sdk/lib\libosl.a(vfsFile.o)
 .comment       0x000000000000107a       0x39 c:/devkitPro/devkitPSP/psp/sdk/lib\libosl.a(oslDrawImage.o)
 .comment       0x00000000000010b3       0x39 c:/devkitPro/devkitPSP/psp/sdk/lib\libosl.a(oslDrawImageSimple.o)
 .comment       0x00000000000010ec       0x39 c:/devkitPro/devkitPSP/psp/sdk/lib\libosl.a(oslLockImage.o)
 .comment       0x0000000000001125       0x39 c:/devkitPro/devkitPSP/psp/sdk/lib\libosl.a(oslSwizzleImage.o)
 .comment       0x000000000000115e       0x39 c:/devkitPro/devkitPSP/psp/sdk/lib\libosl.a(oslSetDrawBuffer.o)
 .comment       0x0000000000001197       0x39 c:/devkitPro/devkitPSP/psp/sdk/lib\libosl.a(oslWriteImageFilePNG.o)
 .comment       0x00000000000011d0       0x39 c:/devkitPro/devkitPSP/psp/sdk/lib\libosl.a(oslLoadImageFile.o)
 .comment       0x0000000000001209       0x39 c:/devkitPro/devkitPSP/psp/sdk/lib\libosl.a(oslShowSplashScreen1.o)
 .comment       0x0000000000001242       0x39 c:/devkitPro/devkitPSP/psp/sdk/lib\libosl.a(oslShowSplashScreen2.o)
 .comment       0x000000000000127b       0x39 c:/devkitPro/devkitPSP/psp/sdk/lib\libosl.a(oslHandleLoadNoFailError.o)
 .comment       0x00000000000012b4       0x39 c:/devkitPro/devkitPSP/psp/sdk/lib\libosl.a(oslMoveImageTo.o)
 .comment       0x00000000000012ed       0x39 c:/devkitPro/devkitPSP/psp/sdk/lib\libosl.a(oslLoadImageFilePNG.o)
 .comment       0x0000000000001326       0x39 c:/devkitPro/devkitPSP/psp/sdk/lib\libosl.a(oslLoadImageFileJPG.o)
 .comment       0x000000000000135f       0x39 c:/devkitPro/devkitPSP/psp/sdk/lib\libosl.a(oslLoadImageFileGIF.o)
 .comment       0x0000000000001398       0x39 c:/devkitPro/devkitPSP/psp/sdk/lib\libosl.a(oslConvertImageTo.o)
 .comment       0x00000000000013d1       0x39 c:/devkitPro/devkitPSP/psp/sdk/lib\libosl.a(oslSetImagePixel.o)
 .comment       0x000000000000140a       0x39 c:/devkitPro/devkitPSP/psp/sdk/lib\libosl.a(oslGetImagePixel.o)
 .comment       0x0000000000001443       0x39 c:/devkitPro/devkitPSP/psp/sdk/lib\libosl.a(gba-jpeg-decode.o)
 .comment       0x000000000000147c       0x39 c:/devkitPro/devkitPSP/psp/sdk/lib\libosl.a(dgif_lib.o)
 .comment       0x00000000000014b5       0x39 c:/devkitPro/devkitPSP/psp/sdk/lib\libosl.a(gif_err.o)
 .comment       0x00000000000014ee       0x39 c:/devkitPro/devkitPSP/psp/sdk/lib\libosl.a(gifalloc.o)
 .comment       0x0000000000001527       0x24 c:/devkitPro/devkitPSP/psp/sdk/lib\libpng.a(png.o)
 .comment       0x000000000000154b       0x24 c:/devkitPro/devkitPSP/psp/sdk/lib\libpng.a(pngerror.o)
 .comment       0x000000000000156f       0x24 c:/devkitPro/devkitPSP/psp/sdk/lib\libpng.a(pngmem.o)
 .comment       0x0000000000001593       0x24 c:/devkitPro/devkitPSP/psp/sdk/lib\libpng.a(pngread.o)
 .comment       0x00000000000015b7       0x24 c:/devkitPro/devkitPSP/psp/sdk/lib\libpng.a(pngrio.o)
 .comment       0x00000000000015db       0x24 c:/devkitPro/devkitPSP/psp/sdk/lib\libpng.a(pngrtran.o)
 .comment       0x00000000000015ff       0x24 c:/devkitPro/devkitPSP/psp/sdk/lib\libpng.a(pngrutil.o)
 .comment       0x0000000000001623       0x24 c:/devkitPro/devkitPSP/psp/sdk/lib\libpng.a(pngset.o)
 .comment       0x0000000000001647       0x24 c:/devkitPro/devkitPSP/psp/sdk/lib\libpng.a(pngtrans.o)
 .comment       0x000000000000166b       0x24 c:/devkitPro/devkitPSP/psp/sdk/lib\libpng.a(pngwio.o)
 .comment       0x000000000000168f       0x24 c:/devkitPro/devkitPSP/psp/sdk/lib\libpng.a(pngwrite.o)
 .comment       0x00000000000016b3       0x24 c:/devkitPro/devkitPSP/psp/sdk/lib\libpng.a(pngwtran.o)
 .comment       0x00000000000016d7       0x24 c:/devkitPro/devkitPSP/psp/sdk/lib\libpng.a(pngwutil.o)
 .comment       0x00000000000016fb       0x24 c:/devkitPro/devkitPSP/psp/sdk/lib\libpng.a(pngget.o)
 .comment       0x000000000000171f       0x24 c:/devkitPro/devkitPSP/psp/sdk/lib\libz.a(adler32.o)
 .comment       0x0000000000001743       0x24 c:/devkitPro/devkitPSP/psp/sdk/lib\libz.a(compress.o)
 .comment       0x0000000000001767       0x24 c:/devkitPro/devkitPSP/psp/sdk/lib\libz.a(crc32.o)
 .comment       0x000000000000178b       0x24 c:/devkitPro/devkitPSP/psp/sdk/lib\libz.a(inflate.o)
 .comment       0x00000000000017af       0x24 c:/devkitPro/devkitPSP/psp/sdk/lib\libz.a(inftrees.o)
 .comment       0x00000000000017d3       0x24 c:/devkitPro/devkitPSP/psp/sdk/lib\libz.a(trees.o)
 .comment       0x00000000000017f7       0x24 c:/devkitPro/devkitPSP/psp/sdk/lib\libz.a(uncompr.o)
 .comment       0x000000000000181b       0x24 c:/devkitPro/devkitPSP/psp/sdk/lib\libz.a(zutil.o)
 .comment       0x000000000000183f       0x24 c:/devkitPro/devkitPSP/psp/sdk/lib\libz.a(inffast.o)
 .comment       0x0000000000001863       0x39 c:/devkitPro/devkitPSP/psp/sdk/lib\libpspgu.a(sceGuAlphaFunc.o)
 .comment       0x000000000000189c       0x39 c:/devkitPro/devkitPSP/psp/sdk/lib\libpspgu.a(sceGuAmbientColor.o)
 .comment       0x00000000000018d5       0x39 c:/devkitPro/devkitPSP/psp/sdk/lib\libpspgu.a(sceGuBlendFunc.o)
 .comment       0x000000000000190e       0x39 c:/devkitPro/devkitPSP/psp/sdk/lib\libpspgu.a(sceGuClear.o)
 .comment       0x0000000000001947       0x39 c:/devkitPro/devkitPSP/psp/sdk/lib\libpspgu.a(sceGuClearColor.o)
 .comment       0x0000000000001980       0x39 c:/devkitPro/devkitPSP/psp/sdk/lib\libpspgu.a(sceGuClutLoad.o)
 .comment       0x00000000000019b9       0x39 c:/devkitPro/devkitPSP/psp/sdk/lib\libpspgu.a(sceGuClutMode.o)
 .comment       0x00000000000019f2       0x39 c:/devkitPro/devkitPSP/psp/sdk/lib\libpspgu.a(sceGuColorFunc.o)
 .comment       0x0000000000001a2b       0x39 c:/devkitPro/devkitPSP/psp/sdk/lib\libpspgu.a(sceGuDisable.o)
 .comment       0x0000000000001a64       0x39 c:/devkitPro/devkitPSP/psp/sdk/lib\libpspgu.a(sceGuDispBuffer.o)
 .comment       0x0000000000001a9d       0x39 c:/devkitPro/devkitPSP/psp/sdk/lib\libpspgu.a(sceGuDisplay.o)
 .comment       0x0000000000001ad6       0x39 c:/devkitPro/devkitPSP/psp/sdk/lib\libpspgu.a(sceGuDrawArray.o)
 .comment       0x0000000000001b0f       0x39 c:/devkitPro/devkitPSP/psp/sdk/lib\libpspgu.a(sceGuDrawBuffer.o)
 .comment       0x0000000000001b48       0x39 c:/devkitPro/devkitPSP/psp/sdk/lib\libpspgu.a(sceGuEnable.o)
 .comment       0x0000000000001b81       0x39 c:/devkitPro/devkitPSP/psp/sdk/lib\libpspgu.a(sceGuFinish.o)
 .comment       0x0000000000001bba       0x39 c:/devkitPro/devkitPSP/psp/sdk/lib\libpspgu.a(sceGuGetMemory.o)
 .comment       0x0000000000001bf3       0x39 c:/devkitPro/devkitPSP/psp/sdk/lib\libpspgu.a(sceGuInit.o)
 .comment       0x0000000000001c2c       0x39 c:/devkitPro/devkitPSP/psp/sdk/lib\libpspgu.a(sceGuScissor.o)
 .comment       0x0000000000001c65       0x39 c:/devkitPro/devkitPSP/psp/sdk/lib\libpspgu.a(sceGuShadeModel.o)
 .comment       0x0000000000001c9e       0x39 c:/devkitPro/devkitPSP/psp/sdk/lib\libpspgu.a(sceGuStart.o)
 .comment       0x0000000000001cd7       0x39 c:/devkitPro/devkitPSP/psp/sdk/lib\libpspgu.a(sceGuStencilFunc.o)
 .comment       0x0000000000001d10       0x39 c:/devkitPro/devkitPSP/psp/sdk/lib\libpspgu.a(sceGuStencilOp.o)
 .comment       0x0000000000001d49       0x39 c:/devkitPro/devkitPSP/psp/sdk/lib\libpspgu.a(sceGuSwapBuffers.o)
 .comment       0x0000000000001d82       0x39 c:/devkitPro/devkitPSP/psp/sdk/lib\libpspgu.a(sceGuSync.o)
 .comment       0x0000000000001dbb       0x39 c:/devkitPro/devkitPSP/psp/sdk/lib\libpspgu.a(sceGuTerm.o)
 .comment       0x0000000000001df4       0x39 c:/devkitPro/devkitPSP/psp/sdk/lib\libpspgu.a(sceGuTexFilter.o)
 .comment       0x0000000000001e2d       0x39 c:/devkitPro/devkitPSP/psp/sdk/lib\libpspgu.a(sceGuTexFunc.o)
 .comment       0x0000000000001e66       0x39 c:/devkitPro/devkitPSP/psp/sdk/lib\libpspgu.a(sceGuTexImage.o)
 .comment       0x0000000000001e9f       0x39 c:/devkitPro/devkitPSP/psp/sdk/lib\libpspgu.a(sceGuTexMode.o)
 .comment       0x0000000000001ed8       0x39 c:/devkitPro/devkitPSP/psp/sdk/lib\libpspgu.a(sceGuTexScale.o)
 .comment       0x0000000000001f11       0x39 c:/devkitPro/devkitPSP/psp/sdk/lib\libpspgu.a(sceGuTexWrap.o)
 .comment       0x0000000000001f4a       0x39 c:/devkitPro/devkitPSP/psp/sdk/lib\libpspgu.a(sendCommand.o)
 .comment       0x0000000000001f83       0x39 c:/devkitPro/devkitPSP/psp/sdk/lib\libpspgu.a(callbackFin.o)
 .comment       0x0000000000001fbc       0x39 c:/devkitPro/devkitPSP/psp/sdk/lib\libpspgu.a(callbackSig.o)
 .comment       0x0000000000001ff5       0x39 c:/devkitPro/devkitPSP/psp/sdk/lib\libpspgu.a(guInternal.o)
 .comment       0x000000000000202e       0x39 c:/devkitPro/devkitPSP/psp/sdk/lib\libpspgu.a(resetValues.o)
 .comment       0x0000000000002067       0x39 c:/devkitPro/devkitPSP/psp/sdk/lib\libpspgu.a(sceGuColorMaterial.o)
 .comment       0x00000000000020a0       0x39 c:/devkitPro/devkitPSP/psp/sdk/lib\libpspgu.a(sceGuPatchDivide.o)
 .comment       0x00000000000020d9       0x39 c:/devkitPro/devkitPSP/psp/sdk/lib\libpspgu.a(sceGuSetDither.o)
 .comment       0x0000000000002112       0x39 c:/devkitPro/devkitPSP/psp/sdk/lib\libpspgu.a(sceGuSpecular.o)
 .comment       0x000000000000214b       0x39 c:/devkitPro/devkitPSP/psp/sdk/lib\libpspgu.a(sceGuTexFlush.o)
 .comment       0x0000000000002184       0x39 c:/devkitpro/devkitpsp/bin/../lib/gcc/psp/4.1.2/../../../../psp/lib\libstdc++.a(del_op.o)
 .comment       0x00000000000021bd       0x39 c:/devkitpro/devkitpsp/bin/../lib/gcc/psp/4.1.2/../../../../psp/lib\libstdc++.a(del_opv.o)
 .comment       0x00000000000021f6       0x39 c:/devkitpro/devkitpsp/bin/../lib/gcc/psp/4.1.2/../../../../psp/lib\libstdc++.a(eh_personality.o)
 .comment       0x000000000000222f       0x39 c:/devkitpro/devkitpsp/bin/../lib/gcc/psp/4.1.2/../../../../psp/lib\libstdc++.a(eh_terminate.o)
 .comment       0x0000000000002268       0x39 c:/devkitpro/devkitpsp/bin/../lib/gcc/psp/4.1.2/../../../../psp/lib\libstdc++.a(eh_term_handler.o)
 .comment       0x00000000000022a1       0x39 c:/devkitpro/devkitpsp/bin/../lib/gcc/psp/4.1.2/../../../../psp/lib\libstdc++.a(eh_throw.o)
 .comment       0x00000000000022da       0x39 c:/devkitpro/devkitpsp/bin/../lib/gcc/psp/4.1.2/../../../../psp/lib\libstdc++.a(eh_unex_handler.o)
 .comment       0x0000000000002313       0x39 c:/devkitpro/devkitpsp/bin/../lib/gcc/psp/4.1.2/../../../../psp/lib\libstdc++.a(new_op.o)
 .comment       0x000000000000234c       0x39 c:/devkitpro/devkitpsp/bin/../lib/gcc/psp/4.1.2/../../../../psp/lib\libstdc++.a(new_opv.o)
 .comment       0x0000000000002385       0x39 c:/devkitpro/devkitpsp/bin/../lib/gcc/psp/4.1.2/../../../../psp/lib\libstdc++.a(vterminate.o)
 .comment       0x00000000000023be       0x39 c:/devkitpro/devkitpsp/bin/../lib/gcc/psp/4.1.2/../../../../psp/lib\libstdc++.a(cp-demangle.o)
 .comment       0x00000000000023f7       0x39 c:/devkitpro/devkitpsp/bin/../lib/gcc/psp/4.1.2/../../../../psp/lib\libstdc++.a(eh_alloc.o)
 .comment       0x0000000000002430       0x39 c:/devkitpro/devkitpsp/bin/../lib/gcc/psp/4.1.2/../../../../psp/lib\libstdc++.a(eh_call.o)
 .comment       0x0000000000002469       0x39 c:/devkitpro/devkitpsp/bin/../lib/gcc/psp/4.1.2/../../../../psp/lib\libstdc++.a(eh_catch.o)
 .comment       0x00000000000024a2       0x39 c:/devkitpro/devkitpsp/bin/../lib/gcc/psp/4.1.2/../../../../psp/lib\libstdc++.a(eh_exception.o)
 .comment       0x00000000000024db       0x39 c:/devkitpro/devkitpsp/bin/../lib/gcc/psp/4.1.2/../../../../psp/lib\libstdc++.a(eh_globals.o)
 .comment       0x0000000000002514       0x39 c:/devkitpro/devkitpsp/bin/../lib/gcc/psp/4.1.2/../../../../psp/lib\libstdc++.a(eh_type.o)
 .comment       0x000000000000254d       0x39 c:/devkitpro/devkitpsp/bin/../lib/gcc/psp/4.1.2/../../../../psp/lib\libstdc++.a(new_handler.o)
 .comment       0x0000000000002586       0x39 c:/devkitpro/devkitpsp/bin/../lib/gcc/psp/4.1.2/../../../../psp/lib\libstdc++.a(tinfo.o)
 .comment       0x00000000000025bf       0x39 c:/devkitpro/devkitpsp/bin/../lib/gcc/psp/4.1.2/../../../../psp/lib\libm.a(s_ceil.o)
 .comment       0x00000000000025f8       0x39 c:/devkitpro/devkitpsp/bin/../lib/gcc/psp/4.1.2/../../../../psp/lib\libm.a(s_floor.o)
 .comment       0x0000000000002631       0x39 c:/devkitpro/devkitpsp/bin/../lib/gcc/psp/4.1.2/../../../../psp/lib\libm.a(s_sin.o)
 .comment       0x000000000000266a       0x39 c:/devkitpro/devkitpsp/bin/../lib/gcc/psp/4.1.2/../../../../psp/lib\libm.a(w_log.o)
 .comment       0x00000000000026a3       0x39 c:/devkitpro/devkitpsp/bin/../lib/gcc/psp/4.1.2/../../../../psp/lib\libm.a(w_log10.o)
 .comment       0x00000000000026dc       0x39 c:/devkitpro/devkitpsp/bin/../lib/gcc/psp/4.1.2/../../../../psp/lib\libm.a(w_pow.o)
 .comment       0x0000000000002715       0x39 c:/devkitpro/devkitpsp/bin/../lib/gcc/psp/4.1.2/../../../../psp/lib\libm.a(w_sqrt.o)
 .comment       0x000000000000274e       0x39 c:/devkitpro/devkitpsp/bin/../lib/gcc/psp/4.1.2/../../../../psp/lib\libm.a(e_log.o)
 .comment       0x0000000000002787       0x39 c:/devkitpro/devkitpsp/bin/../lib/gcc/psp/4.1.2/../../../../psp/lib\libm.a(e_log10.o)
 .comment       0x00000000000027c0       0x39 c:/devkitpro/devkitpsp/bin/../lib/gcc/psp/4.1.2/../../../../psp/lib\libm.a(e_pow.o)
 .comment       0x00000000000027f9       0x39 c:/devkitpro/devkitpsp/bin/../lib/gcc/psp/4.1.2/../../../../psp/lib\libm.a(e_rem_pio2.o)
 .comment       0x0000000000002832       0x39 c:/devkitpro/devkitpsp/bin/../lib/gcc/psp/4.1.2/../../../../psp/lib\libm.a(e_sqrt.o)
 .comment       0x000000000000286b       0x39 c:/devkitpro/devkitpsp/bin/../lib/gcc/psp/4.1.2/../../../../psp/lib\libm.a(k_cos.o)
 .comment       0x00000000000028a4       0x39 c:/devkitpro/devkitpsp/bin/../lib/gcc/psp/4.1.2/../../../../psp/lib\libm.a(k_rem_pio2.o)
 .comment       0x00000000000028dd       0x39 c:/devkitpro/devkitpsp/bin/../lib/gcc/psp/4.1.2/../../../../psp/lib\libm.a(k_sin.o)
 .comment       0x0000000000002916       0x39 c:/devkitpro/devkitpsp/bin/../lib/gcc/psp/4.1.2/../../../../psp/lib\libm.a(s_fabs.o)
 .comment       0x000000000000294f       0x39 c:/devkitpro/devkitpsp/bin/../lib/gcc/psp/4.1.2/../../../../psp/lib\libm.a(s_finite.o)
 .comment       0x0000000000002988       0x39 c:/devkitpro/devkitpsp/bin/../lib/gcc/psp/4.1.2/../../../../psp/lib\libm.a(s_isnan.o)
 .comment       0x00000000000029c1       0x39 c:/devkitpro/devkitpsp/bin/../lib/gcc/psp/4.1.2/../../../../psp/lib\libm.a(s_lib_ver.o)
 .comment       0x00000000000029fa       0x39 c:/devkitpro/devkitpsp/bin/../lib/gcc/psp/4.1.2/../../../../psp/lib\libm.a(s_matherr.o)
 .comment       0x0000000000002a33       0x39 c:/devkitpro/devkitpsp/bin/../lib/gcc/psp/4.1.2/../../../../psp/lib\libm.a(s_rint.o)
 .comment       0x0000000000002a6c       0x39 c:/devkitpro/devkitpsp/bin/../lib/gcc/psp/4.1.2/../../../../psp/lib\libm.a(s_scalbn.o)
 .comment       0x0000000000002aa5       0x39 c:/devkitpro/devkitpsp/bin/../lib/gcc/psp/4.1.2/../../../../psp/lib\libm.a(s_copysign.o)
 .comment       0x0000000000002ade       0x39 c:/devkitpro/devkitpsp/bin/../lib/gcc/psp/4.1.2/../../../../psp/lib\libc.a(abort.o)
 .comment       0x0000000000002b17       0x39 c:/devkitpro/devkitpsp/bin/../lib/gcc/psp/4.1.2/../../../../psp/lib\libc.a(atexit.o)
 .comment       0x0000000000002b50       0x39 c:/devkitpro/devkitpsp/bin/../lib/gcc/psp/4.1.2/../../../../psp/lib\libc.a(atof.o)
 .comment       0x0000000000002b89       0x39 c:/devkitpro/devkitpsp/bin/../lib/gcc/psp/4.1.2/../../../../psp/lib\libc.a(atoi.o)
 .comment       0x0000000000002bc2       0x39 c:/devkitpro/devkitpsp/bin/../lib/gcc/psp/4.1.2/../../../../psp/lib\libc.a(calloc.o)
 .comment       0x0000000000002bfb       0x39 c:/devkitpro/devkitpsp/bin/../lib/gcc/psp/4.1.2/../../../../psp/lib\libc.a(callocr.o)
 .comment       0x0000000000002c34       0x39 c:/devkitpro/devkitpsp/bin/../lib/gcc/psp/4.1.2/../../../../psp/lib\libc.a(ctype_.o)
 .comment       0x0000000000002c6d       0x39 c:/devkitpro/devkitpsp/bin/../lib/gcc/psp/4.1.2/../../../../psp/lib\libc.a(errno.o)
 .comment       0x0000000000002ca6       0x39 c:/devkitpro/devkitpsp/bin/../lib/gcc/psp/4.1.2/../../../../psp/lib\libc.a(exit.o)
 .comment       0x0000000000002cdf       0x39 c:/devkitpro/devkitpsp/bin/../lib/gcc/psp/4.1.2/../../../../psp/lib\libc.a(fclose.o)
 .comment       0x0000000000002d18       0x39 c:/devkitpro/devkitpsp/bin/../lib/gcc/psp/4.1.2/../../../../psp/lib\libc.a(fdopen.o)
 .comment       0x0000000000002d51       0x39 c:/devkitpro/devkitpsp/bin/../lib/gcc/psp/4.1.2/../../../../psp/lib\libc.a(fflush.o)
 .comment       0x0000000000002d8a       0x39 c:/devkitpro/devkitpsp/bin/../lib/gcc/psp/4.1.2/../../../../psp/lib\libc.a(fgetc.o)
 .comment       0x0000000000002dc3       0x39 c:/devkitpro/devkitpsp/bin/../lib/gcc/psp/4.1.2/../../../../psp/lib\libc.a(fgets.o)
 .comment       0x0000000000002dfc       0x39 c:/devkitpro/devkitpsp/bin/../lib/gcc/psp/4.1.2/../../../../psp/lib\libc.a(findfp.o)
 .comment       0x0000000000002e35       0x39 c:/devkitpro/devkitpsp/bin/../lib/gcc/psp/4.1.2/../../../../psp/lib\libc.a(flags.o)
 .comment       0x0000000000002e6e       0x39 c:/devkitpro/devkitpsp/bin/../lib/gcc/psp/4.1.2/../../../../psp/lib\libc.a(fopen.o)
 .comment       0x0000000000002ea7       0x39 c:/devkitpro/devkitpsp/bin/../lib/gcc/psp/4.1.2/../../../../psp/lib\libc.a(fprintf.o)
 .comment       0x0000000000002ee0       0x39 c:/devkitpro/devkitpsp/bin/../lib/gcc/psp/4.1.2/../../../../psp/lib\libc.a(fputc.o)
 .comment       0x0000000000002f19       0x39 c:/devkitpro/devkitpsp/bin/../lib/gcc/psp/4.1.2/../../../../psp/lib\libc.a(fputs.o)
 .comment       0x0000000000002f52       0x39 c:/devkitpro/devkitpsp/bin/../lib/gcc/psp/4.1.2/../../../../psp/lib\libc.a(fread.o)
 .comment       0x0000000000002f8b       0x39 c:/devkitpro/devkitpsp/bin/../lib/gcc/psp/4.1.2/../../../../psp/lib\libc.a(freer.o)
 .comment       0x0000000000002fc4       0x39 c:/devkitpro/devkitpsp/bin/../lib/gcc/psp/4.1.2/../../../../psp/lib\libc.a(fseek.o)
 .comment       0x0000000000002ffd       0x39 c:/devkitpro/devkitpsp/bin/../lib/gcc/psp/4.1.2/../../../../psp/lib\libc.a(fstatr.o)
 .comment       0x0000000000003036       0x39 c:/devkitpro/devkitpsp/bin/../lib/gcc/psp/4.1.2/../../../../psp/lib\libc.a(ftell.o)
 .comment       0x000000000000306f       0x39 c:/devkitpro/devkitpsp/bin/../lib/gcc/psp/4.1.2/../../../../psp/lib\libc.a(fvwrite.o)
 .comment       0x00000000000030a8       0x39 c:/devkitpro/devkitpsp/bin/../lib/gcc/psp/4.1.2/../../../../psp/lib\libc.a(fwalk.o)
 .comment       0x00000000000030e1       0x39 c:/devkitpro/devkitpsp/bin/../lib/gcc/psp/4.1.2/../../../../psp/lib\libc.a(fwrite.o)
 .comment       0x000000000000311a       0x39 c:/devkitpro/devkitpsp/bin/../lib/gcc/psp/4.1.2/../../../../psp/lib\libc.a(gmtime.o)
 .comment       0x0000000000003153       0x39 c:/devkitpro/devkitpsp/bin/../lib/gcc/psp/4.1.2/../../../../psp/lib\libc.a(gmtime_r.o)
 .comment       0x000000000000318c       0x39 c:/devkitpro/devkitpsp/bin/../lib/gcc/psp/4.1.2/../../../../psp/lib\libc.a(impure.o)
 .comment       0x00000000000031c5       0x39 c:/devkitpro/devkitpsp/bin/../lib/gcc/psp/4.1.2/../../../../psp/lib\libc.a(iprintf.o)
 .comment       0x00000000000031fe       0x39 c:/devkitpro/devkitpsp/bin/../lib/gcc/psp/4.1.2/../../../../psp/lib\libc.a(lcltime.o)
 .comment       0x0000000000003237       0x39 c:/devkitpro/devkitpsp/bin/../lib/gcc/psp/4.1.2/../../../../psp/lib\libc.a(lcltime_r.o)
 .comment       0x0000000000003270       0x39 c:/devkitpro/devkitpsp/bin/../lib/gcc/psp/4.1.2/../../../../psp/lib\libc.a(makebuf.o)
 .comment       0x00000000000032a9       0x39 c:/devkitpro/devkitpsp/bin/../lib/gcc/psp/4.1.2/../../../../psp/lib\libc.a(malign.o)
 .comment       0x00000000000032e2       0x39 c:/devkitpro/devkitpsp/bin/../lib/gcc/psp/4.1.2/../../../../psp/lib\libc.a(malignr.o)
 .comment       0x000000000000331b       0x39 c:/devkitpro/devkitpsp/bin/../lib/gcc/psp/4.1.2/../../../../psp/lib\libc.a(malloc.o)
 .comment       0x0000000000003354       0x39 c:/devkitpro/devkitpsp/bin/../lib/gcc/psp/4.1.2/../../../../psp/lib\libc.a(mallocr.o)
 .comment       0x000000000000338d       0x39 c:/devkitpro/devkitpsp/bin/../lib/gcc/psp/4.1.2/../../../../psp/lib\libc.a(memchr.o)
 .comment       0x00000000000033c6       0x39 c:/devkitpro/devkitpsp/bin/../lib/gcc/psp/4.1.2/../../../../psp/lib\libc.a(memcmp.o)
 .comment       0x00000000000033ff       0x39 c:/devkitpro/devkitpsp/bin/../lib/gcc/psp/4.1.2/../../../../psp/lib\libc.a(memcpy.o)
 .comment       0x0000000000003438       0x39 c:/devkitpro/devkitpsp/bin/../lib/gcc/psp/4.1.2/../../../../psp/lib\libc.a(memmove.o)
 .comment       0x0000000000003471       0x39 c:/devkitpro/devkitpsp/bin/../lib/gcc/psp/4.1.2/../../../../psp/lib\libc.a(memset.o)
 .comment       0x00000000000034aa       0x39 c:/devkitpro/devkitpsp/bin/../lib/gcc/psp/4.1.2/../../../../psp/lib\libc.a(mktm_r.o)
 .comment       0x00000000000034e3       0x39 c:/devkitpro/devkitpsp/bin/../lib/gcc/psp/4.1.2/../../../../psp/lib\libc.a(mlock.o)
 .comment       0x000000000000351c       0x39 c:/devkitpro/devkitpsp/bin/../lib/gcc/psp/4.1.2/../../../../psp/lib\libc.a(openr.o)
 .comment       0x0000000000003555       0x39 c:/devkitpro/devkitpsp/bin/../lib/gcc/psp/4.1.2/../../../../psp/lib\libc.a(rand.o)
 .comment       0x000000000000358e       0x39 c:/devkitpro/devkitpsp/bin/../lib/gcc/psp/4.1.2/../../../../psp/lib\libc.a(realloc.o)
 .comment       0x00000000000035c7       0x39 c:/devkitpro/devkitpsp/bin/../lib/gcc/psp/4.1.2/../../../../psp/lib\libc.a(reallocr.o)
 .comment       0x0000000000003600       0x39 c:/devkitpro/devkitpsp/bin/../lib/gcc/psp/4.1.2/../../../../psp/lib\libc.a(reent.o)
 .comment       0x0000000000003639       0x39 c:/devkitpro/devkitpsp/bin/../lib/gcc/psp/4.1.2/../../../../psp/lib\libc.a(refill.o)
 .comment       0x0000000000003672       0x39 c:/devkitpro/devkitpsp/bin/../lib/gcc/psp/4.1.2/../../../../psp/lib\libc.a(rget.o)
 .comment       0x00000000000036ab       0x39 c:/devkitpro/devkitpsp/bin/../lib/gcc/psp/4.1.2/../../../../psp/lib\libc.a(sbrkr.o)
 .comment       0x00000000000036e4       0x39 c:/devkitpro/devkitpsp/bin/../lib/gcc/psp/4.1.2/../../../../psp/lib\libc.a(signal.o)
 .comment       0x000000000000371d       0x39 c:/devkitpro/devkitpsp/bin/../lib/gcc/psp/4.1.2/../../../../psp/lib\libc.a(signalr.o)
 .comment       0x0000000000003756       0x39 c:/devkitpro/devkitpsp/bin/../lib/gcc/psp/4.1.2/../../../../psp/lib\libc.a(sprintf.o)
 .comment       0x000000000000378f       0x39 c:/devkitpro/devkitpsp/bin/../lib/gcc/psp/4.1.2/../../../../psp/lib\libc.a(stdio.o)
 .comment       0x00000000000037c8       0x39 c:/devkitpro/devkitpsp/bin/../lib/gcc/psp/4.1.2/../../../../psp/lib\libc.a(strcasecmp.o)
 .comment       0x0000000000003801       0x39 c:/devkitpro/devkitpsp/bin/../lib/gcc/psp/4.1.2/../../../../psp/lib\libc.a(strcat.o)
 .comment       0x000000000000383a       0x39 c:/devkitpro/devkitpsp/bin/../lib/gcc/psp/4.1.2/../../../../psp/lib\libc.a(strchr.o)
 .comment       0x0000000000003873       0x39 c:/devkitpro/devkitpsp/bin/../lib/gcc/psp/4.1.2/../../../../psp/lib\libc.a(strcmp.o)
 .comment       0x00000000000038ac       0x39 c:/devkitpro/devkitpsp/bin/../lib/gcc/psp/4.1.2/../../../../psp/lib\libc.a(strcpy.o)
 .comment       0x00000000000038e5       0x39 c:/devkitpro/devkitpsp/bin/../lib/gcc/psp/4.1.2/../../../../psp/lib\libc.a(strerror.o)
 .comment       0x000000000000391e       0x39 c:/devkitpro/devkitpsp/bin/../lib/gcc/psp/4.1.2/../../../../psp/lib\libc.a(strlen.o)
 .comment       0x0000000000003957       0x39 c:/devkitpro/devkitpsp/bin/../lib/gcc/psp/4.1.2/../../../../psp/lib\libc.a(strncmp.o)
 .comment       0x0000000000003990       0x39 c:/devkitpro/devkitpsp/bin/../lib/gcc/psp/4.1.2/../../../../psp/lib\libc.a(strncpy.o)
 .comment       0x00000000000039c9       0x39 c:/devkitpro/devkitpsp/bin/../lib/gcc/psp/4.1.2/../../../../psp/lib\libc.a(strrchr.o)
 .comment       0x0000000000003a02       0x39 c:/devkitpro/devkitpsp/bin/../lib/gcc/psp/4.1.2/../../../../psp/lib\libc.a(strtod.o)
 .comment       0x0000000000003a3b       0x39 c:/devkitpro/devkitpsp/bin/../lib/gcc/psp/4.1.2/../../../../psp/lib\libc.a(strtol.o)
 .comment       0x0000000000003a74       0x39 c:/devkitpro/devkitpsp/bin/../lib/gcc/psp/4.1.2/../../../../psp/lib\libc.a(sysgettod.o)
 .comment       0x0000000000003aad       0x39 c:/devkitpro/devkitpsp/bin/../lib/gcc/psp/4.1.2/../../../../psp/lib\libc.a(time.o)
 .comment       0x0000000000003ae6       0x39 c:/devkitpro/devkitpsp/bin/../lib/gcc/psp/4.1.2/../../../../psp/lib\libc.a(tzlock.o)
 .comment       0x0000000000003b1f       0x39 c:/devkitpro/devkitpsp/bin/../lib/gcc/psp/4.1.2/../../../../psp/lib\libc.a(tzvars.o)
 .comment       0x0000000000003b58       0x39 c:/devkitpro/devkitpsp/bin/../lib/gcc/psp/4.1.2/../../../../psp/lib\libc.a(u_strerr.o)
 .comment       0x0000000000003b91       0x39 c:/devkitpro/devkitpsp/bin/../lib/gcc/psp/4.1.2/../../../../psp/lib\libc.a(ungetc.o)
 .comment       0x0000000000003bca       0x39 c:/devkitpro/devkitpsp/bin/../lib/gcc/psp/4.1.2/../../../../psp/lib\libc.a(vfiprintf.o)
 .comment       0x0000000000003c03       0x39 c:/devkitpro/devkitpsp/bin/../lib/gcc/psp/4.1.2/../../../../psp/lib\libc.a(vsnprintf.o)
 .comment       0x0000000000003c3c       0x39 c:/devkitpro/devkitpsp/bin/../lib/gcc/psp/4.1.2/../../../../psp/lib\libc.a(vxprintf.o)
 .comment       0x0000000000003c75       0x39 c:/devkitpro/devkitpsp/bin/../lib/gcc/psp/4.1.2/../../../../psp/lib\libc.a(wbuf.o)
 .comment       0x0000000000003cae       0x39 c:/devkitpro/devkitpsp/bin/../lib/gcc/psp/4.1.2/../../../../psp/lib\libc.a(wcrtomb.o)
 .comment       0x0000000000003ce7       0x39 c:/devkitpro/devkitpsp/bin/../lib/gcc/psp/4.1.2/../../../../psp/lib\libc.a(wcsrtombs.o)
 .comment       0x0000000000003d20       0x39 c:/devkitpro/devkitpsp/bin/../lib/gcc/psp/4.1.2/../../../../psp/lib\libc.a(wctomb_r.o)
 .comment       0x0000000000003d59       0x39 c:/devkitpro/devkitpsp/bin/../lib/gcc/psp/4.1.2/../../../../psp/lib\libc.a(writer.o)
 .comment       0x0000000000003d92       0x39 c:/devkitpro/devkitpsp/bin/../lib/gcc/psp/4.1.2/../../../../psp/lib\libc.a(wsetup.o)
 .comment       0x0000000000003dcb       0x39 c:/devkitpro/devkitpsp/bin/../lib/gcc/psp/4.1.2/../../../../psp/lib\libc.a(_Exit.o)
 .comment       0x0000000000003e04       0x39 c:/devkitpro/devkitpsp/bin/../lib/gcc/psp/4.1.2/../../../../psp/lib\libc.a(__atexit.o)
 .comment       0x0000000000003e3d       0x39 c:/devkitpro/devkitpsp/bin/../lib/gcc/psp/4.1.2/../../../../psp/lib\libc.a(__call_atexit.o)
 .comment       0x0000000000003e76       0x39 c:/devkitpro/devkitpsp/bin/../lib/gcc/psp/4.1.2/../../../../psp/lib\libc.a(__fout.o)
 .comment       0x0000000000003eaf       0x39 c:/devkitpro/devkitpsp/bin/../lib/gcc/psp/4.1.2/../../../../psp/lib\libc.a(__psp_set_errno.o)
 .comment       0x0000000000003ee8       0x39 c:/devkitpro/devkitpsp/bin/../lib/gcc/psp/4.1.2/../../../../psp/lib\libc.a(__sout.o)
 .comment       0x0000000000003f21       0x39 c:/devkitpro/devkitpsp/bin/../lib/gcc/psp/4.1.2/../../../../psp/lib\libc.a(_fstat.o)
 .comment       0x0000000000003f5a       0x39 c:/devkitpro/devkitpsp/bin/../lib/gcc/psp/4.1.2/../../../../psp/lib\libc.a(_getpid.o)
 .comment       0x0000000000003f93       0x39 c:/devkitpro/devkitpsp/bin/../lib/gcc/psp/4.1.2/../../../../psp/lib\libc.a(_gettimeofday.o)
 .comment       0x0000000000003fcc       0x39 c:/devkitpro/devkitpsp/bin/../lib/gcc/psp/4.1.2/../../../../psp/lib\libc.a(_kill.o)
 .comment       0x0000000000004005       0x39 c:/devkitpro/devkitpsp/bin/../lib/gcc/psp/4.1.2/../../../../psp/lib\libc.a(_open.o)
 .comment       0x000000000000403e       0x39 c:/devkitpro/devkitpsp/bin/../lib/gcc/psp/4.1.2/../../../../psp/lib\libc.a(_sbrk.o)
 .comment       0x0000000000004077       0x39 c:/devkitpro/devkitpsp/bin/../lib/gcc/psp/4.1.2/../../../../psp/lib\libc.a(_write.o)
 .comment       0x00000000000040b0       0x39 c:/devkitpro/devkitpsp/bin/../lib/gcc/psp/4.1.2/../../../../psp/lib\libc.a(closer.o)
 .comment       0x00000000000040e9       0x39 c:/devkitpro/devkitpsp/bin/../lib/gcc/psp/4.1.2/../../../../psp/lib\libc.a(fcntlr.o)
 .comment       0x0000000000004122       0x39 c:/devkitpro/devkitpsp/bin/../lib/gcc/psp/4.1.2/../../../../psp/lib\libc.a(fdman.o)
 .comment       0x000000000000415b       0x39 c:/devkitpro/devkitpsp/bin/../lib/gcc/psp/4.1.2/../../../../psp/lib\libc.a(gettzinfo.o)
 .comment       0x0000000000004194       0x39 c:/devkitpro/devkitpsp/bin/../lib/gcc/psp/4.1.2/../../../../psp/lib\libc.a(isatty.o)
 .comment       0x00000000000041cd       0x39 c:/devkitpro/devkitpsp/bin/../lib/gcc/psp/4.1.2/../../../../psp/lib\libc.a(isdigit.o)
 .comment       0x0000000000004206       0x39 c:/devkitpro/devkitpsp/bin/../lib/gcc/psp/4.1.2/../../../../psp/lib\libc.a(locale.o)
 .comment       0x000000000000423f       0x39 c:/devkitpro/devkitpsp/bin/../lib/gcc/psp/4.1.2/../../../../psp/lib\libc.a(lseekr.o)
 .comment       0x0000000000004278       0x39 c:/devkitpro/devkitpsp/bin/../lib/gcc/psp/4.1.2/../../../../psp/lib\libc.a(mprec.o)
 .comment       0x00000000000042b1       0x39 c:/devkitpro/devkitpsp/bin/../lib/gcc/psp/4.1.2/../../../../psp/lib\libc.a(pipe.o)
 .comment       0x00000000000042ea       0x39 c:/devkitpro/devkitpsp/bin/../lib/gcc/psp/4.1.2/../../../../psp/lib\libc.a(pspcwd.o)
 .comment       0x0000000000004323       0x39 c:/devkitpro/devkitpsp/bin/../lib/gcc/psp/4.1.2/../../../../psp/lib\libc.a(readr.o)
 .comment       0x000000000000435c       0x39 c:/devkitpro/devkitpsp/bin/../lib/gcc/psp/4.1.2/../../../../psp/lib\libc.a(s_nan.o)
 .comment       0x0000000000004395       0x39 c:/devkitpro/devkitpsp/bin/../lib/gcc/psp/4.1.2/../../../../psp/lib\libc.a(sf_nan.o)
 .comment       0x00000000000043ce       0x39 c:/devkitpro/devkitpsp/bin/../lib/gcc/psp/4.1.2/../../../../psp/lib\libc.a(strdup.o)
 .comment       0x0000000000004407       0x39 c:/devkitpro/devkitpsp/bin/../lib/gcc/psp/4.1.2/../../../../psp/lib\libc.a(strdup_r.o)
 .comment       0x0000000000004440       0x39 c:/devkitpro/devkitpsp/bin/../lib/gcc/psp/4.1.2/../../../../psp/lib\libc.a(sysstat.o)
 .comment       0x0000000000004479       0x39 c:/devkitpro/devkitpsp/bin/../lib/gcc/psp/4.1.2/../../../../psp/lib\libc.a(_close.o)
 .comment       0x00000000000044b2       0x39 c:/devkitpro/devkitpsp/bin/../lib/gcc/psp/4.1.2/../../../../psp/lib\libc.a(_fcntl.o)
 .comment       0x00000000000044eb       0x39 c:/devkitpro/devkitpsp/bin/../lib/gcc/psp/4.1.2/../../../../psp/lib\libc.a(_lseek.o)
 .comment       0x0000000000004524       0x39 c:/devkitpro/devkitpsp/bin/../lib/gcc/psp/4.1.2/../../../../psp/lib\libc.a(_read.o)
 .comment       0x000000000000455d       0x39 c:/devkitpro/devkitpsp/bin/../lib/gcc/psp/4.1.2/../../../../psp/lib\libc.a(_stat.o)
 .comment       0x0000000000004596       0x39 c:/devkitpro/devkitpsp/bin/../lib/gcc/psp/4.1.2/../../../../psp/lib\libc.a(chdir.o)
 .comment       0x00000000000045cf       0x39 c:/devkitpro/devkitpsp/bin/../lib/gcc/psp/4.1.2/../../../../psp/lib\libc.a(mktime.o)
 .comment       0x0000000000004608       0x39 c:/devkitpro/devkitpsp/bin/../lib/gcc/psp/4.1.2/../../../../psp/lib\libc.a(setsockopt.o)
 .comment       0x0000000000004641       0x39 c:/devkitpro/devkitpsp/bin/../lib/gcc/psp/4.1.2/../../../../psp/lib\libc.a(div.o)
 .comment       0x000000000000467a       0x39 c:/devkitpro/devkitpsp/bin/../lib/gcc/psp/4.1.2\libgcc.a(_fixunsdfsi.o)
 .comment       0x00000000000046b3       0x39 c:/devkitpro/devkitpsp/bin/../lib/gcc/psp/4.1.2\libgcc.a(_udivdi3.o)
 .comment       0x00000000000046ec       0x39 c:/devkitpro/devkitpsp/bin/../lib/gcc/psp/4.1.2\libgcc.a(_umoddi3.o)
 .comment       0x0000000000004725       0x39 c:/devkitpro/devkitpsp/bin/../lib/gcc/psp/4.1.2\libgcc.a(_sf_to_df.o)
 .comment       0x000000000000475e       0x39 c:/devkitpro/devkitpsp/bin/../lib/gcc/psp/4.1.2\libgcc.a(_addsub_df.o)
 .comment       0x0000000000004797       0x39 c:/devkitpro/devkitpsp/bin/../lib/gcc/psp/4.1.2\libgcc.a(_mul_df.o)
 .comment       0x00000000000047d0       0x39 c:/devkitpro/devkitpsp/bin/../lib/gcc/psp/4.1.2\libgcc.a(_div_df.o)
 .comment       0x0000000000004809       0x39 c:/devkitpro/devkitpsp/bin/../lib/gcc/psp/4.1.2\libgcc.a(_eq_df.o)
 .comment       0x0000000000004842       0x39 c:/devkitpro/devkitpsp/bin/../lib/gcc/psp/4.1.2\libgcc.a(_ne_df.o)
 .comment       0x000000000000487b       0x39 c:/devkitpro/devkitpsp/bin/../lib/gcc/psp/4.1.2\libgcc.a(_gt_df.o)
 .comment       0x00000000000048b4       0x39 c:/devkitpro/devkitpsp/bin/../lib/gcc/psp/4.1.2\libgcc.a(_ge_df.o)
 .comment       0x00000000000048ed       0x39 c:/devkitpro/devkitpsp/bin/../lib/gcc/psp/4.1.2\libgcc.a(_lt_df.o)
 .comment       0x0000000000004926       0x39 c:/devkitpro/devkitpsp/bin/../lib/gcc/psp/4.1.2\libgcc.a(_le_df.o)
 .comment       0x000000000000495f       0x39 c:/devkitpro/devkitpsp/bin/../lib/gcc/psp/4.1.2\libgcc.a(_si_to_df.o)
 .comment       0x0000000000004998       0x39 c:/devkitpro/devkitpsp/bin/../lib/gcc/psp/4.1.2\libgcc.a(_df_to_si.o)
 .comment       0x00000000000049d1       0x39 c:/devkitpro/devkitpsp/bin/../lib/gcc/psp/4.1.2\libgcc.a(_make_df.o)
 .comment       0x0000000000004a0a       0x39 c:/devkitpro/devkitpsp/bin/../lib/gcc/psp/4.1.2\libgcc.a(_df_to_sf.o)
 .comment       0x0000000000004a43       0x39 c:/devkitpro/devkitpsp/bin/../lib/gcc/psp/4.1.2\libgcc.a(_thenan_df.o)
 .comment       0x0000000000004a7c       0x39 c:/devkitpro/devkitpsp/bin/../lib/gcc/psp/4.1.2\libgcc.a(unwind-dw2.o)
 .comment       0x0000000000004ab5       0x39 c:/devkitpro/devkitpsp/bin/../lib/gcc/psp/4.1.2\libgcc.a(unwind-dw2-fde.o)
 .comment       0x0000000000004aee       0x39 c:/devkitpro/devkitpsp/bin/../lib/gcc/psp/4.1.2\libgcc.a(_clz.o)
 .comment       0x0000000000004b27       0x39 c:/devkitpro/devkitpsp/bin/../lib/gcc/psp/4.1.2\libgcc.a(_unpack_sf.o)
 .comment       0x0000000000004b60       0x39 c:/devkitpro/devkitpsp/bin/../lib/gcc/psp/4.1.2\libgcc.a(_make_sf.o)
 .comment       0x0000000000004b99       0x39 c:/devkitpro/devkitpsp/bin/../lib/gcc/psp/4.1.2\libgcc.a(_pack_df.o)
 .comment       0x0000000000004bd2       0x39 c:/devkitpro/devkitpsp/bin/../lib/gcc/psp/4.1.2\libgcc.a(_unpack_df.o)
 .comment       0x0000000000004c0b       0x39 c:/devkitpro/devkitpsp/bin/../lib/gcc/psp/4.1.2\libgcc.a(_fpcmp_parts_df.o)
 .comment       0x0000000000004c44       0x39 c:/devkitpro/devkitpsp/bin/../lib/gcc/psp/4.1.2\libgcc.a(_pack_sf.o)
 .comment       0x0000000000004c7d       0x39 c:/devkitpro/devkitpsp/bin/../lib/gcc/psp/4.1.2/crtend.o

.debug
 *(.debug)

.line
 *(.line)

.debug_srcinfo
 *(.debug_srcinfo)

.debug_sfnames
 *(.debug_sfnames)

.debug_aranges  0x0000000000000000      0x530
 *(.debug_aranges)
 .debug_aranges
                0x0000000000000000       0x20 c:/devkitpro/devkitpsp/bin/../lib/gcc/psp/4.1.2/../../../../psp/lib/crt0.o
 .debug_aranges
                0x0000000000000020       0x20 psp/sound.o
 .debug_aranges
                0x0000000000000040       0x30 psp/gym/gym.o
 .debug_aranges
                0x0000000000000070       0x20 psp/gym/gym_play.o
 .debug_aranges
                0x0000000000000090       0x20 psp/vgm/In_vgm.o
 .debug_aranges
                0x00000000000000b0       0x20 c:/devkitPro/devkitPSP/psp/sdk/lib\libosl.a(oslib.o)
 .debug_aranges
                0x00000000000000d0       0x20 c:/devkitPro/devkitPSP/psp/sdk/lib\libosl.a(drawing.o)
 .debug_aranges
                0x00000000000000f0       0x20 c:/devkitPro/devkitPSP/psp/sdk/lib\libosl.a(image.o)
 .debug_aranges
                0x0000000000000110       0x20 c:/devkitPro/devkitPSP/psp/sdk/lib\libosl.a(palette.o)
 .debug_aranges
                0x0000000000000130       0x20 c:/devkitPro/devkitPSP/psp/sdk/lib\libosl.a(shape.o)
 .debug_aranges
                0x0000000000000150       0x20 c:/devkitPro/devkitPSP/psp/sdk/lib\libosl.a(messagebox.o)
 .debug_aranges
                0x0000000000000170       0x20 c:/devkitPro/devkitPSP/psp/sdk/lib\libosl.a(keys.o)
 .debug_aranges
                0x0000000000000190       0x20 c:/devkitPro/devkitPSP/psp/sdk/lib\libosl.a(vfpu.o)
 .debug_aranges
                0x00000000000001b0       0x20 c:/devkitPro/devkitPSP/psp/sdk/lib\libosl.a(text.o)
 .debug_aranges
                0x00000000000001d0       0x20 c:/devkitPro/devkitPSP/psp/sdk/lib\libosl.a(vram_mgr.o)
 .debug_aranges
                0x00000000000001f0       0x20 c:/devkitPro/devkitPSP/psp/sdk/lib\libosl.a(stub.o)
 .debug_aranges
                0x0000000000000210       0x20 c:/devkitPro/devkitPSP/psp/sdk/lib\libosl.a(audio.o)
 .debug_aranges
                0x0000000000000230       0x20 c:/devkitPro/devkitPSP/psp/sdk/lib\libosl.a(bgm.o)
 .debug_aranges
                0x0000000000000250       0x20 c:/devkitPro/devkitPSP/psp/sdk/lib\libosl.a(VirtualFile.o)
 .debug_aranges
                0x0000000000000270       0x20 c:/devkitPro/devkitPSP/psp/sdk/lib\libosl.a(vfsFile.o)
 .debug_aranges
                0x0000000000000290       0x20 c:/devkitPro/devkitPSP/psp/sdk/lib\libosl.a(oslDrawImage.o)
 .debug_aranges
                0x00000000000002b0       0x20 c:/devkitPro/devkitPSP/psp/sdk/lib\libosl.a(oslDrawImageSimple.o)
 .debug_aranges
                0x00000000000002d0       0x20 c:/devkitPro/devkitPSP/psp/sdk/lib\libosl.a(oslLockImage.o)
 .debug_aranges
                0x00000000000002f0       0x20 c:/devkitPro/devkitPSP/psp/sdk/lib\libosl.a(oslSwizzleImage.o)
 .debug_aranges
                0x0000000000000310       0x20 c:/devkitPro/devkitPSP/psp/sdk/lib\libosl.a(oslSetDrawBuffer.o)
 .debug_aranges
                0x0000000000000330       0x20 c:/devkitPro/devkitPSP/psp/sdk/lib\libosl.a(oslWriteImageFilePNG.o)
 .debug_aranges
                0x0000000000000350       0x20 c:/devkitPro/devkitPSP/psp/sdk/lib\libosl.a(oslLoadImageFile.o)
 .debug_aranges
                0x0000000000000370       0x20 c:/devkitPro/devkitPSP/psp/sdk/lib\libosl.a(oslShowSplashScreen1.o)
 .debug_aranges
                0x0000000000000390       0x20 c:/devkitPro/devkitPSP/psp/sdk/lib\libosl.a(oslShowSplashScreen2.o)
 .debug_aranges
                0x00000000000003b0       0x20 c:/devkitPro/devkitPSP/psp/sdk/lib\libosl.a(oslHandleLoadNoFailError.o)
 .debug_aranges
                0x00000000000003d0       0x20 c:/devkitPro/devkitPSP/psp/sdk/lib\libosl.a(oslMoveImageTo.o)
 .debug_aranges
                0x00000000000003f0       0x20 c:/devkitPro/devkitPSP/psp/sdk/lib\libosl.a(oslLoadImageFilePNG.o)
 .debug_aranges
                0x0000000000000410       0x20 c:/devkitPro/devkitPSP/psp/sdk/lib\libosl.a(oslLoadImageFileJPG.o)
 .debug_aranges
                0x0000000000000430       0x20 c:/devkitPro/devkitPSP/psp/sdk/lib\libosl.a(oslLoadImageFileGIF.o)
 .debug_aranges
                0x0000000000000450       0x20 c:/devkitPro/devkitPSP/psp/sdk/lib\libosl.a(oslConvertImageTo.o)
 .debug_aranges
                0x0000000000000470       0x20 c:/devkitPro/devkitPSP/psp/sdk/lib\libosl.a(oslSetImagePixel.o)
 .debug_aranges
                0x0000000000000490       0x20 c:/devkitPro/devkitPSP/psp/sdk/lib\libosl.a(oslGetImagePixel.o)
 .debug_aranges
                0x00000000000004b0       0x20 c:/devkitPro/devkitPSP/psp/sdk/lib\libosl.a(gba-jpeg-decode.o)
 .debug_aranges
                0x00000000000004d0       0x20 c:/devkitPro/devkitPSP/psp/sdk/lib\libosl.a(dgif_lib.o)
 .debug_aranges
                0x00000000000004f0       0x20 c:/devkitPro/devkitPSP/psp/sdk/lib\libosl.a(gif_err.o)
 .debug_aranges
                0x0000000000000510       0x20 c:/devkitPro/devkitPSP/psp/sdk/lib\libosl.a(gifalloc.o)

.debug_pubnames
                0x0000000000000000     0x2b55
 *(.debug_pubnames)
 .debug_pubnames
                0x0000000000000000       0x27 c:/devkitpro/devkitpsp/bin/../lib/gcc/psp/4.1.2/../../../../psp/lib/crt0.o
 .debug_pubnames
                0x0000000000000027      0x45f psp/sound.o
 .debug_pubnames
                0x0000000000000486      0x422 psp/gym/gym.o
 .debug_pubnames
                0x00000000000008a8      0x103 psp/gym/gym_play.o
 .debug_pubnames
                0x00000000000009ab      0x454 psp/vgm/In_vgm.o
 .debug_pubnames
                0x0000000000000dff      0x333 c:/devkitPro/devkitPSP/psp/sdk/lib\libosl.a(oslib.o)
 .debug_pubnames
                0x0000000000001132      0x3d6 c:/devkitPro/devkitPSP/psp/sdk/lib\libosl.a(drawing.o)
 .debug_pubnames
                0x0000000000001508      0x177 c:/devkitPro/devkitPSP/psp/sdk/lib\libosl.a(image.o)
 .debug_pubnames
                0x000000000000167f       0x84 c:/devkitPro/devkitPSP/psp/sdk/lib\libosl.a(palette.o)
 .debug_pubnames
                0x0000000000001703       0x71 c:/devkitPro/devkitPSP/psp/sdk/lib\libosl.a(shape.o)
 .debug_pubnames
                0x0000000000001774       0x3d c:/devkitPro/devkitPSP/psp/sdk/lib\libosl.a(messagebox.o)
 .debug_pubnames
                0x00000000000017b1       0x5a c:/devkitPro/devkitPSP/psp/sdk/lib\libosl.a(keys.o)
 .debug_pubnames
                0x000000000000180b       0x52 c:/devkitPro/devkitPSP/psp/sdk/lib\libosl.a(vfpu.o)
 .debug_pubnames
                0x000000000000185d      0x1e5 c:/devkitPro/devkitPSP/psp/sdk/lib\libosl.a(text.o)
 .debug_pubnames
                0x0000000000001a42      0x100 c:/devkitPro/devkitPSP/psp/sdk/lib\libosl.a(vram_mgr.o)
 .debug_pubnames
                0x0000000000001b42      0x3d5 c:/devkitPro/devkitPSP/psp/sdk/lib\libosl.a(audio.o)
 .debug_pubnames
                0x0000000000001f17      0x14b c:/devkitPro/devkitPSP/psp/sdk/lib\libosl.a(bgm.o)
 .debug_pubnames
                0x0000000000002062      0x289 c:/devkitPro/devkitPSP/psp/sdk/lib\libosl.a(VirtualFile.o)
 .debug_pubnames
                0x00000000000022eb       0xee c:/devkitPro/devkitPSP/psp/sdk/lib\libosl.a(vfsFile.o)
 .debug_pubnames
                0x00000000000023d9       0x23 c:/devkitPro/devkitPSP/psp/sdk/lib\libosl.a(oslDrawImage.o)
 .debug_pubnames
                0x00000000000023fc       0x29 c:/devkitPro/devkitPSP/psp/sdk/lib\libosl.a(oslDrawImageSimple.o)
 .debug_pubnames
                0x0000000000002425       0x36 c:/devkitPro/devkitPSP/psp/sdk/lib\libosl.a(oslLockImage.o)
 .debug_pubnames
                0x000000000000245b       0x6e c:/devkitPro/devkitPSP/psp/sdk/lib\libosl.a(oslSwizzleImage.o)
 .debug_pubnames
                0x00000000000024c9       0x27 c:/devkitPro/devkitPSP/psp/sdk/lib\libosl.a(oslSetDrawBuffer.o)
 .debug_pubnames
                0x00000000000024f0       0x3d c:/devkitPro/devkitPSP/psp/sdk/lib\libosl.a(oslWriteImageFilePNG.o)
 .debug_pubnames
                0x000000000000252d       0x27 c:/devkitPro/devkitPSP/psp/sdk/lib\libosl.a(oslLoadImageFile.o)
 .debug_pubnames
                0x0000000000002554       0x79 c:/devkitPro/devkitPSP/psp/sdk/lib\libosl.a(oslShowSplashScreen1.o)
 .debug_pubnames
                0x00000000000025cd       0x2b c:/devkitPro/devkitPSP/psp/sdk/lib\libosl.a(oslShowSplashScreen2.o)
 .debug_pubnames
                0x00000000000025f8       0x64 c:/devkitPro/devkitPSP/psp/sdk/lib\libosl.a(oslHandleLoadNoFailError.o)
 .debug_pubnames
                0x000000000000265c       0x25 c:/devkitPro/devkitPSP/psp/sdk/lib\libosl.a(oslMoveImageTo.o)
 .debug_pubnames
                0x0000000000002681       0x4d c:/devkitPro/devkitPSP/psp/sdk/lib\libosl.a(oslLoadImageFilePNG.o)
 .debug_pubnames
                0x00000000000026ce       0x2a c:/devkitPro/devkitPSP/psp/sdk/lib\libosl.a(oslLoadImageFileJPG.o)
 .debug_pubnames
                0x00000000000026f8       0xb2 c:/devkitPro/devkitPSP/psp/sdk/lib\libosl.a(oslLoadImageFileGIF.o)
 .debug_pubnames
                0x00000000000027aa       0x28 c:/devkitPro/devkitPSP/psp/sdk/lib\libosl.a(oslConvertImageTo.o)
 .debug_pubnames
                0x00000000000027d2       0x27 c:/devkitPro/devkitPSP/psp/sdk/lib\libosl.a(oslSetImagePixel.o)
 .debug_pubnames
                0x00000000000027f9       0x27 c:/devkitPro/devkitPSP/psp/sdk/lib\libosl.a(oslGetImagePixel.o)
 .debug_pubnames
                0x0000000000002820      0x12b c:/devkitPro/devkitPSP/psp/sdk/lib\libosl.a(gba-jpeg-decode.o)
 .debug_pubnames
                0x000000000000294b       0xf8 c:/devkitPro/devkitPSP/psp/sdk/lib\libosl.a(dgif_lib.o)
 .debug_pubnames
                0x0000000000002a43       0x31 c:/devkitPro/devkitPSP/psp/sdk/lib\libosl.a(gif_err.o)
 .debug_pubnames
                0x0000000000002a74       0xe1 c:/devkitPro/devkitPSP/psp/sdk/lib\libosl.a(gifalloc.o)

.debug_info     0x0000000000000000    0x1b9cc
 *(.debug_info .gnu.linkonce.wi.*)
 .debug_info    0x0000000000000000      0x3a8 c:/devkitpro/devkitpsp/bin/../lib/gcc/psp/4.1.2/../../../../psp/lib/crt0.o
 .debug_info    0x00000000000003a8     0x2423 psp/sound.o
 .debug_info    0x00000000000027cb     0x27d9 psp/gym/gym.o
 .debug_info    0x0000000000004fa4      0x735 psp/gym/gym_play.o
 .debug_info    0x00000000000056d9     0x2478 psp/vgm/In_vgm.o
 .debug_info    0x0000000000007b51      0xb1f c:/devkitPro/devkitPSP/psp/sdk/lib\libosl.a(oslib.o)
 .debug_info    0x0000000000008670      0xab5 c:/devkitPro/devkitPSP/psp/sdk/lib\libosl.a(drawing.o)
 .debug_info    0x0000000000009125      0xa53 c:/devkitPro/devkitPSP/psp/sdk/lib\libosl.a(image.o)
 .debug_info    0x0000000000009b78      0x30e c:/devkitPro/devkitPSP/psp/sdk/lib\libosl.a(palette.o)
 .debug_info    0x0000000000009e86      0x46f c:/devkitPro/devkitPSP/psp/sdk/lib\libosl.a(shape.o)
 .debug_info    0x000000000000a2f5      0x8b8 c:/devkitPro/devkitPSP/psp/sdk/lib\libosl.a(messagebox.o)
 .debug_info    0x000000000000abad      0x484 c:/devkitPro/devkitPSP/psp/sdk/lib\libosl.a(keys.o)
 .debug_info    0x000000000000b031      0x26a c:/devkitPro/devkitPSP/psp/sdk/lib\libosl.a(vfpu.o)
 .debug_info    0x000000000000b29b     0x10d9 c:/devkitPro/devkitPSP/psp/sdk/lib\libosl.a(text.o)
 .debug_info    0x000000000000c374      0x376 c:/devkitPro/devkitPSP/psp/sdk/lib\libosl.a(vram_mgr.o)
 .debug_info    0x000000000000c6ea       0x6c c:/devkitPro/devkitPSP/psp/sdk/lib\libosl.a(stub.o)
 .debug_info    0x000000000000c756     0x1424 c:/devkitPro/devkitPSP/psp/sdk/lib\libosl.a(audio.o)
 .debug_info    0x000000000000db7a      0xb2f c:/devkitPro/devkitPSP/psp/sdk/lib\libosl.a(bgm.o)
 .debug_info    0x000000000000e6a9      0xb20 c:/devkitPro/devkitPSP/psp/sdk/lib\libosl.a(VirtualFile.o)
 .debug_info    0x000000000000f1c9      0x673 c:/devkitPro/devkitPSP/psp/sdk/lib\libosl.a(vfsFile.o)
 .debug_info    0x000000000000f83c      0x445 c:/devkitPro/devkitPSP/psp/sdk/lib\libosl.a(oslDrawImage.o)
 .debug_info    0x000000000000fc81      0x3e9 c:/devkitPro/devkitPSP/psp/sdk/lib\libosl.a(oslDrawImageSimple.o)
 .debug_info    0x000000000001006a      0x3aa c:/devkitPro/devkitPSP/psp/sdk/lib\libosl.a(oslLockImage.o)
 .debug_info    0x0000000000010414      0x668 c:/devkitPro/devkitPSP/psp/sdk/lib\libosl.a(oslSwizzleImage.o)
 .debug_info    0x0000000000010a7c      0x371 c:/devkitPro/devkitPSP/psp/sdk/lib\libosl.a(oslSetDrawBuffer.o)
 .debug_info    0x0000000000010ded     0x1c29 c:/devkitPro/devkitPSP/psp/sdk/lib\libosl.a(oslWriteImageFilePNG.o)
 .debug_info    0x0000000000012a16      0x3e7 c:/devkitPro/devkitPSP/psp/sdk/lib\libosl.a(oslLoadImageFile.o)
 .debug_info    0x0000000000012dfd      0xab7 c:/devkitPro/devkitPSP/psp/sdk/lib\libosl.a(oslShowSplashScreen1.o)
 .debug_info    0x00000000000138b4      0x7ae c:/devkitPro/devkitPSP/psp/sdk/lib\libosl.a(oslShowSplashScreen2.o)
 .debug_info    0x0000000000014062      0x1fd c:/devkitPro/devkitPSP/psp/sdk/lib\libosl.a(oslHandleLoadNoFailError.o)
 .debug_info    0x000000000001425f      0x3c3 c:/devkitPro/devkitPSP/psp/sdk/lib\libosl.a(oslMoveImageTo.o)
 .debug_info    0x0000000000014622     0x1db4 c:/devkitPro/devkitPSP/psp/sdk/lib\libosl.a(oslLoadImageFilePNG.o)
 .debug_info    0x00000000000163d6      0x7a4 c:/devkitPro/devkitPSP/psp/sdk/lib\libosl.a(oslLoadImageFileJPG.o)
 .debug_info    0x0000000000016b7a      0xc45 c:/devkitPro/devkitPSP/psp/sdk/lib\libosl.a(oslLoadImageFileGIF.o)
 .debug_info    0x00000000000177bf      0x537 c:/devkitPro/devkitPSP/psp/sdk/lib\libosl.a(oslConvertImageTo.o)
 .debug_info    0x0000000000017cf6      0x399 c:/devkitPro/devkitPSP/psp/sdk/lib\libosl.a(oslSetImagePixel.o)
 .debug_info    0x000000000001808f      0x390 c:/devkitPro/devkitPSP/psp/sdk/lib\libosl.a(oslGetImagePixel.o)
 .debug_info    0x000000000001841f     0x1868 c:/devkitPro/devkitPSP/psp/sdk/lib\libosl.a(gba-jpeg-decode.o)
 .debug_info    0x0000000000019c87     0x1602 c:/devkitPro/devkitPSP/psp/sdk/lib\libosl.a(dgif_lib.o)
 .debug_info    0x000000000001b289       0xb9 c:/devkitPro/devkitPSP/psp/sdk/lib\libosl.a(gif_err.o)
 .debug_info    0x000000000001b342      0x68a c:/devkitPro/devkitPSP/psp/sdk/lib\libosl.a(gifalloc.o)

.debug_abbrev   0x0000000000000000     0x53d7
 *(.debug_abbrev)
 .debug_abbrev  0x0000000000000000      0x134 c:/devkitpro/devkitpsp/bin/../lib/gcc/psp/4.1.2/../../../../psp/lib/crt0.o
 .debug_abbrev  0x0000000000000134      0x5ea psp/sound.o
 .debug_abbrev  0x000000000000071e      0x5ed psp/gym/gym.o
 .debug_abbrev  0x0000000000000d0b      0x22b psp/gym/gym_play.o
 .debug_abbrev  0x0000000000000f36      0x3e1 psp/vgm/In_vgm.o
 .debug_abbrev  0x0000000000001317      0x344 c:/devkitPro/devkitPSP/psp/sdk/lib\libosl.a(oslib.o)
 .debug_abbrev  0x000000000000165b      0x2a5 c:/devkitPro/devkitPSP/psp/sdk/lib\libosl.a(drawing.o)
 .debug_abbrev  0x0000000000001900      0x315 c:/devkitPro/devkitPSP/psp/sdk/lib\libosl.a(image.o)
 .debug_abbrev  0x0000000000001c15      0x151 c:/devkitPro/devkitPSP/psp/sdk/lib\libosl.a(palette.o)
 .debug_abbrev  0x0000000000001d66      0x16c c:/devkitPro/devkitPSP/psp/sdk/lib\libosl.a(shape.o)
 .debug_abbrev  0x0000000000001ed2      0x1df c:/devkitPro/devkitPSP/psp/sdk/lib\libosl.a(messagebox.o)
 .debug_abbrev  0x00000000000020b1      0x171 c:/devkitPro/devkitPSP/psp/sdk/lib\libosl.a(keys.o)
 .debug_abbrev  0x0000000000002222      0x11d c:/devkitPro/devkitPSP/psp/sdk/lib\libosl.a(vfpu.o)
 .debug_abbrev  0x000000000000233f      0x2bc c:/devkitPro/devkitPSP/psp/sdk/lib\libosl.a(text.o)
 .debug_abbrev  0x00000000000025fb      0x158 c:/devkitPro/devkitPSP/psp/sdk/lib\libosl.a(vram_mgr.o)
 .debug_abbrev  0x0000000000002753       0x14 c:/devkitPro/devkitPSP/psp/sdk/lib\libosl.a(stub.o)
 .debug_abbrev  0x0000000000002767      0x381 c:/devkitPro/devkitPSP/psp/sdk/lib\libosl.a(audio.o)
 .debug_abbrev  0x0000000000002ae8      0x24a c:/devkitPro/devkitPSP/psp/sdk/lib\libosl.a(bgm.o)
 .debug_abbrev  0x0000000000002d32      0x2cb c:/devkitPro/devkitPSP/psp/sdk/lib\libosl.a(VirtualFile.o)
 .debug_abbrev  0x0000000000002ffd      0x191 c:/devkitPro/devkitPSP/psp/sdk/lib\libosl.a(vfsFile.o)
 .debug_abbrev  0x000000000000318e      0x103 c:/devkitPro/devkitPSP/psp/sdk/lib\libosl.a(oslDrawImage.o)
 .debug_abbrev  0x0000000000003291      0x103 c:/devkitPro/devkitPSP/psp/sdk/lib\libosl.a(oslDrawImageSimple.o)
 .debug_abbrev  0x0000000000003394       0xff c:/devkitPro/devkitPSP/psp/sdk/lib\libosl.a(oslLockImage.o)
 .debug_abbrev  0x0000000000003493      0x1dc c:/devkitPro/devkitPSP/psp/sdk/lib\libosl.a(oslSwizzleImage.o)
 .debug_abbrev  0x000000000000366f       0xe5 c:/devkitPro/devkitPSP/psp/sdk/lib\libosl.a(oslSetDrawBuffer.o)
 .debug_abbrev  0x0000000000003754      0x1ea c:/devkitPro/devkitPSP/psp/sdk/lib\libosl.a(oslWriteImageFilePNG.o)
 .debug_abbrev  0x000000000000393e      0x11e c:/devkitPro/devkitPSP/psp/sdk/lib\libosl.a(oslLoadImageFile.o)
 .debug_abbrev  0x0000000000003a5c      0x2dd c:/devkitPro/devkitPSP/psp/sdk/lib\libosl.a(oslShowSplashScreen1.o)
 .debug_abbrev  0x0000000000003d39      0x212 c:/devkitPro/devkitPSP/psp/sdk/lib\libosl.a(oslShowSplashScreen2.o)
 .debug_abbrev  0x0000000000003f4b       0xef c:/devkitPro/devkitPSP/psp/sdk/lib\libosl.a(oslHandleLoadNoFailError.o)
 .debug_abbrev  0x000000000000403a      0x14d c:/devkitPro/devkitPSP/psp/sdk/lib\libosl.a(oslMoveImageTo.o)
 .debug_abbrev  0x0000000000004187      0x24a c:/devkitPro/devkitPSP/psp/sdk/lib\libosl.a(oslLoadImageFilePNG.o)
 .debug_abbrev  0x00000000000043d1      0x195 c:/devkitPro/devkitPSP/psp/sdk/lib\libosl.a(oslLoadImageFileJPG.o)
 .debug_abbrev  0x0000000000004566      0x244 c:/devkitPro/devkitPSP/psp/sdk/lib\libosl.a(oslLoadImageFileGIF.o)
 .debug_abbrev  0x00000000000047aa      0x1c3 c:/devkitPro/devkitPSP/psp/sdk/lib\libosl.a(oslConvertImageTo.o)
 .debug_abbrev  0x000000000000496d      0x103 c:/devkitPro/devkitPSP/psp/sdk/lib\libosl.a(oslSetImagePixel.o)
 .debug_abbrev  0x0000000000004a70       0xf6 c:/devkitPro/devkitPSP/psp/sdk/lib\libosl.a(oslGetImagePixel.o)
 .debug_abbrev  0x0000000000004b66      0x30c c:/devkitPro/devkitPSP/psp/sdk/lib\libosl.a(gba-jpeg-decode.o)
 .debug_abbrev  0x0000000000004e72      0x31c c:/devkitPro/devkitPSP/psp/sdk/lib\libosl.a(dgif_lib.o)
 .debug_abbrev  0x000000000000518e       0x66 c:/devkitPro/devkitPSP/psp/sdk/lib\libosl.a(gif_err.o)
 .debug_abbrev  0x00000000000051f4      0x1e3 c:/devkitPro/devkitPSP/psp/sdk/lib\libosl.a(gifalloc.o)

.debug_line     0x0000000000000000     0x63ab
 *(.debug_line)
 .debug_line    0x0000000000000000       0xb3 c:/devkitpro/devkitpsp/bin/../lib/gcc/psp/4.1.2/../../../../psp/lib/crt0.o
 .debug_line    0x00000000000000b3      0x6d2 psp/sound.o
 .debug_line    0x0000000000000785      0x87a psp/gym/gym.o
 .debug_line    0x0000000000000fff      0x22d psp/gym/gym_play.o
 .debug_line    0x000000000000122c      0xa16 psp/vgm/In_vgm.o
 .debug_line    0x0000000000001c42      0x304 c:/devkitPro/devkitPSP/psp/sdk/lib\libosl.a(oslib.o)
 .debug_line    0x0000000000001f46      0x33c c:/devkitPro/devkitPSP/psp/sdk/lib\libosl.a(drawing.o)
 .debug_line    0x0000000000002282      0x361 c:/devkitPro/devkitPSP/psp/sdk/lib\libosl.a(image.o)
 .debug_line    0x00000000000025e3      0x149 c:/devkitPro/devkitPSP/psp/sdk/lib\libosl.a(palette.o)
 .debug_line    0x000000000000272c      0x1ba c:/devkitPro/devkitPSP/psp/sdk/lib\libosl.a(shape.o)
 .debug_line    0x00000000000028e6      0x1f0 c:/devkitPro/devkitPSP/psp/sdk/lib\libosl.a(messagebox.o)
 .debug_line    0x0000000000002ad6       0xdb c:/devkitPro/devkitPSP/psp/sdk/lib\libosl.a(keys.o)
 .debug_line    0x0000000000002bb1       0x7e c:/devkitPro/devkitPSP/psp/sdk/lib\libosl.a(vfpu.o)
 .debug_line    0x0000000000002c2f      0x3eb c:/devkitPro/devkitPSP/psp/sdk/lib\libosl.a(text.o)
 .debug_line    0x000000000000301a      0x1bc c:/devkitPro/devkitPSP/psp/sdk/lib\libosl.a(vram_mgr.o)
 .debug_line    0x00000000000031d6       0x32 c:/devkitPro/devkitPSP/psp/sdk/lib\libosl.a(stub.o)
 .debug_line    0x0000000000003208      0x4f1 c:/devkitPro/devkitPSP/psp/sdk/lib\libosl.a(audio.o)
 .debug_line    0x00000000000036f9      0x278 c:/devkitPro/devkitPSP/psp/sdk/lib\libosl.a(bgm.o)
 .debug_line    0x0000000000003971      0x24d c:/devkitPro/devkitPSP/psp/sdk/lib\libosl.a(VirtualFile.o)
 .debug_line    0x0000000000003bbe       0xf0 c:/devkitPro/devkitPSP/psp/sdk/lib\libosl.a(vfsFile.o)
 .debug_line    0x0000000000003cae      0x17f c:/devkitPro/devkitPSP/psp/sdk/lib\libosl.a(oslDrawImage.o)
 .debug_line    0x0000000000003e2d      0x124 c:/devkitPro/devkitPSP/psp/sdk/lib\libosl.a(oslDrawImageSimple.o)
 .debug_line    0x0000000000003f51      0x10a c:/devkitPro/devkitPSP/psp/sdk/lib\libosl.a(oslLockImage.o)
 .debug_line    0x000000000000405b      0x18c c:/devkitPro/devkitPSP/psp/sdk/lib\libosl.a(oslSwizzleImage.o)
 .debug_line    0x00000000000041e7      0x109 c:/devkitPro/devkitPSP/psp/sdk/lib\libosl.a(oslSetDrawBuffer.o)
 .debug_line    0x00000000000042f0      0x247 c:/devkitPro/devkitPSP/psp/sdk/lib\libosl.a(oslWriteImageFilePNG.o)
 .debug_line    0x0000000000004537      0x137 c:/devkitPro/devkitPSP/psp/sdk/lib\libosl.a(oslLoadImageFile.o)
 .debug_line    0x000000000000466e      0x2f5 c:/devkitPro/devkitPSP/psp/sdk/lib\libosl.a(oslShowSplashScreen1.o)
 .debug_line    0x0000000000004963      0x1e6 c:/devkitPro/devkitPSP/psp/sdk/lib\libosl.a(oslShowSplashScreen2.o)
 .debug_line    0x0000000000004b49      0x109 c:/devkitPro/devkitPSP/psp/sdk/lib\libosl.a(oslHandleLoadNoFailError.o)
 .debug_line    0x0000000000004c52      0x12c c:/devkitPro/devkitPSP/psp/sdk/lib\libosl.a(oslMoveImageTo.o)
 .debug_line    0x0000000000004d7e      0x2fe c:/devkitPro/devkitPSP/psp/sdk/lib\libosl.a(oslLoadImageFilePNG.o)
 .debug_line    0x000000000000507c      0x162 c:/devkitPro/devkitPSP/psp/sdk/lib\libosl.a(oslLoadImageFileJPG.o)
 .debug_line    0x00000000000051de      0x26e c:/devkitPro/devkitPSP/psp/sdk/lib\libosl.a(oslLoadImageFileGIF.o)
 .debug_line    0x000000000000544c      0x15b c:/devkitPro/devkitPSP/psp/sdk/lib\libosl.a(oslConvertImageTo.o)
 .debug_line    0x00000000000055a7      0x116 c:/devkitPro/devkitPSP/psp/sdk/lib\libosl.a(oslSetImagePixel.o)
 .debug_line    0x00000000000056bd      0x114 c:/devkitPro/devkitPSP/psp/sdk/lib\libosl.a(oslGetImagePixel.o)
 .debug_line    0x00000000000057d1      0x51f c:/devkitPro/devkitPSP/psp/sdk/lib\libosl.a(gba-jpeg-decode.o)
 .debug_line    0x0000000000005cf0      0x4f7 c:/devkitPro/devkitPSP/psp/sdk/lib\libosl.a(dgif_lib.o)
 .debug_line    0x00000000000061e7       0x3b c:/devkitPro/devkitPSP/psp/sdk/lib\libosl.a(gif_err.o)
 .debug_line    0x0000000000006222      0x189 c:/devkitPro/devkitPSP/psp/sdk/lib\libosl.a(gifalloc.o)

.debug_frame    0x0000000000000000     0x29b0
 *(.debug_frame)
 .debug_frame   0x0000000000000000       0x64 c:/devkitpro/devkitpsp/bin/../lib/gcc/psp/4.1.2/../../../../psp/lib/crt0.o
 .debug_frame   0x0000000000000064      0x2d4 psp/sound.o
 .debug_frame   0x0000000000000338      0x274 psp/gym/gym.o
 .debug_frame   0x00000000000005ac       0xc0 psp/gym/gym_play.o
 .debug_frame   0x000000000000066c      0x130 psp/vgm/In_vgm.o
 .debug_frame   0x000000000000079c      0x254 c:/devkitPro/devkitPSP/psp/sdk/lib\libosl.a(oslib.o)
 .debug_frame   0x00000000000009f0      0x2a0 c:/devkitPro/devkitPSP/psp/sdk/lib\libosl.a(drawing.o)
 .debug_frame   0x0000000000000c90      0x214 c:/devkitPro/devkitPSP/psp/sdk/lib\libosl.a(image.o)
 .debug_frame   0x0000000000000ea4       0xbc c:/devkitPro/devkitPSP/psp/sdk/lib\libosl.a(palette.o)
 .debug_frame   0x0000000000000f60      0x118 c:/devkitPro/devkitPSP/psp/sdk/lib\libosl.a(shape.o)
 .debug_frame   0x0000000000001078       0x88 c:/devkitPro/devkitPSP/psp/sdk/lib\libosl.a(messagebox.o)
 .debug_frame   0x0000000000001100       0x88 c:/devkitPro/devkitPSP/psp/sdk/lib\libosl.a(keys.o)
 .debug_frame   0x0000000000001188       0x50 c:/devkitPro/devkitPSP/psp/sdk/lib\libosl.a(vfpu.o)
 .debug_frame   0x00000000000011d8      0x254 c:/devkitPro/devkitPSP/psp/sdk/lib\libosl.a(text.o)
 .debug_frame   0x000000000000142c       0x9c c:/devkitPro/devkitPSP/psp/sdk/lib\libosl.a(vram_mgr.o)
 .debug_frame   0x00000000000014c8      0x4b4 c:/devkitPro/devkitPSP/psp/sdk/lib\libosl.a(audio.o)
 .debug_frame   0x000000000000197c      0x13c c:/devkitPro/devkitPSP/psp/sdk/lib\libosl.a(bgm.o)
 .debug_frame   0x0000000000001ab8      0x2c4 c:/devkitPro/devkitPSP/psp/sdk/lib\libosl.a(VirtualFile.o)
 .debug_frame   0x0000000000001d7c      0x124 c:/devkitPro/devkitPSP/psp/sdk/lib\libosl.a(vfsFile.o)
 .debug_frame   0x0000000000001ea0       0x48 c:/devkitPro/devkitPSP/psp/sdk/lib\libosl.a(oslDrawImage.o)
 .debug_frame   0x0000000000001ee8       0x34 c:/devkitPro/devkitPSP/psp/sdk/lib\libosl.a(oslDrawImageSimple.o)
 .debug_frame   0x0000000000001f1c       0x40 c:/devkitPro/devkitPSP/psp/sdk/lib\libosl.a(oslLockImage.o)
 .debug_frame   0x0000000000001f5c       0x88 c:/devkitPro/devkitPSP/psp/sdk/lib\libosl.a(oslSwizzleImage.o)
 .debug_frame   0x0000000000001fe4       0x30 c:/devkitPro/devkitPSP/psp/sdk/lib\libosl.a(oslSetDrawBuffer.o)
 .debug_frame   0x0000000000002014       0x6c c:/devkitPro/devkitPSP/psp/sdk/lib\libosl.a(oslWriteImageFilePNG.o)
 .debug_frame   0x0000000000002080       0x34 c:/devkitPro/devkitPSP/psp/sdk/lib\libosl.a(oslLoadImageFile.o)
 .debug_frame   0x00000000000020b4       0x54 c:/devkitPro/devkitPSP/psp/sdk/lib\libosl.a(oslShowSplashScreen1.o)
 .debug_frame   0x0000000000002108       0x4c c:/devkitPro/devkitPSP/psp/sdk/lib\libosl.a(oslShowSplashScreen2.o)
 .debug_frame   0x0000000000002154       0x50 c:/devkitPro/devkitPSP/psp/sdk/lib\libosl.a(oslHandleLoadNoFailError.o)
 .debug_frame   0x00000000000021a4       0x30 c:/devkitPro/devkitPSP/psp/sdk/lib\libosl.a(oslMoveImageTo.o)
 .debug_frame   0x00000000000021d4       0x84 c:/devkitPro/devkitPSP/psp/sdk/lib\libosl.a(oslLoadImageFilePNG.o)
 .debug_frame   0x0000000000002258       0x40 c:/devkitPro/devkitPSP/psp/sdk/lib\libosl.a(oslLoadImageFileJPG.o)
 .debug_frame   0x0000000000002298       0xcc c:/devkitPro/devkitPSP/psp/sdk/lib\libosl.a(oslLoadImageFileGIF.o)
 .debug_frame   0x0000000000002364       0x40 c:/devkitPro/devkitPSP/psp/sdk/lib\libosl.a(oslConvertImageTo.o)
 .debug_frame   0x00000000000023a4       0x3c c:/devkitPro/devkitPSP/psp/sdk/lib\libosl.a(oslSetImagePixel.o)
 .debug_frame   0x00000000000023e0       0x3c c:/devkitPro/devkitPSP/psp/sdk/lib\libosl.a(oslGetImagePixel.o)
 .debug_frame   0x000000000000241c      0x1bc c:/devkitPro/devkitPSP/psp/sdk/lib\libosl.a(gba-jpeg-decode.o)
 .debug_frame   0x00000000000025d8      0x244 c:/devkitPro/devkitPSP/psp/sdk/lib\libosl.a(dgif_lib.o)
 .debug_frame   0x000000000000281c       0x20 c:/devkitPro/devkitPSP/psp/sdk/lib\libosl.a(gif_err.o)
 .debug_frame   0x000000000000283c      0x174 c:/devkitPro/devkitPSP/psp/sdk/lib\libosl.a(gifalloc.o)

.debug_str      0x0000000000000000     0x5dc1
 *(.debug_str)
 .debug_str     0x0000000000000000      0x244 c:/devkitpro/devkitpsp/bin/../lib/gcc/psp/4.1.2/../../../../psp/lib/crt0.o
                                        0x2b4 (size before relaxing)
 .debug_str     0x0000000000000244      0xfa7 psp/sound.o
                                       0x11d3 (size before relaxing)
 .debug_str     0x00000000000011eb      0xb8c psp/gym/gym.o
                                       0x140c (size before relaxing)
 .debug_str     0x0000000000001d77      0x117 psp/gym/gym_play.o
                                        0x3de (size before relaxing)
 .debug_str     0x0000000000001e8e      0x64c psp/vgm/In_vgm.o
                                        0xf28 (size before relaxing)
 .debug_str     0x00000000000024da      0x450 c:/devkitPro/devkitPSP/psp/sdk/lib\libosl.a(oslib.o)
                                        0x6ad (size before relaxing)
 .debug_str     0x000000000000292a      0x414 c:/devkitPro/devkitPSP/psp/sdk/lib\libosl.a(drawing.o)
                                        0x65d (size before relaxing)
 .debug_str     0x0000000000002d3e      0x1c1 c:/devkitPro/devkitPSP/psp/sdk/lib\libosl.a(image.o)
                                        0x52f (size before relaxing)
 .debug_str     0x0000000000002eff       0x68 c:/devkitPro/devkitPSP/psp/sdk/lib\libosl.a(palette.o)
                                        0x2b4 (size before relaxing)
 .debug_str     0x0000000000002f67       0x71 c:/devkitPro/devkitPSP/psp/sdk/lib\libosl.a(shape.o)
                                        0x277 (size before relaxing)
 .debug_str     0x0000000000002fd8      0x11a c:/devkitPro/devkitPSP/psp/sdk/lib\libosl.a(messagebox.o)
                                        0x575 (size before relaxing)
 .debug_str     0x00000000000030f2       0x4e c:/devkitPro/devkitPSP/psp/sdk/lib\libosl.a(keys.o)
                                        0x369 (size before relaxing)
 .debug_str     0x0000000000003140       0x33 c:/devkitPro/devkitPSP/psp/sdk/lib\libosl.a(vfpu.o)
                                        0x222 (size before relaxing)
 .debug_str     0x0000000000003173      0x2b2 c:/devkitPro/devkitPSP/psp/sdk/lib\libosl.a(text.o)
                                        0x706 (size before relaxing)
 .debug_str     0x0000000000003425      0x142 c:/devkitPro/devkitPSP/psp/sdk/lib\libosl.a(vram_mgr.o)
                                        0x34c (size before relaxing)
 .debug_str     0x0000000000003567      0x551 c:/devkitPro/devkitPSP/psp/sdk/lib\libosl.a(audio.o)
                                        0x891 (size before relaxing)
 .debug_str     0x0000000000003ab8      0x194 c:/devkitPro/devkitPSP/psp/sdk/lib\libosl.a(bgm.o)
                                        0x5a2 (size before relaxing)
 .debug_str     0x0000000000003c4c      0x270 c:/devkitPro/devkitPSP/psp/sdk/lib\libosl.a(VirtualFile.o)
                                        0x542 (size before relaxing)
 .debug_str     0x0000000000003ebc       0xb4 c:/devkitPro/devkitPSP/psp/sdk/lib\libosl.a(vfsFile.o)
                                        0x367 (size before relaxing)
 .debug_str     0x0000000000003f70       0x4c c:/devkitPro/devkitPSP/psp/sdk/lib\libosl.a(oslDrawImage.o)
                                        0x343 (size before relaxing)
 .debug_str     0x0000000000003fbc       0x41 c:/devkitPro/devkitPSP/psp/sdk/lib\libosl.a(oslDrawImageSimple.o)
                                        0x325 (size before relaxing)
 .debug_str     0x0000000000003ffd       0x31 c:/devkitPro/devkitPSP/psp/sdk/lib\libosl.a(oslLockImage.o)
                                        0x326 (size before relaxing)
 .debug_str     0x000000000000402e       0xcd c:/devkitPro/devkitPSP/psp/sdk/lib\libosl.a(oslSwizzleImage.o)
                                        0x419 (size before relaxing)
 .debug_str     0x00000000000040fb       0x2a c:/devkitPro/devkitPSP/psp/sdk/lib\libosl.a(oslSetDrawBuffer.o)
                                        0x310 (size before relaxing)
 .debug_str     0x0000000000004125      0xb8b c:/devkitPro/devkitPSP/psp/sdk/lib\libosl.a(oslWriteImageFilePNG.o)
                                       0x1169 (size before relaxing)
 .debug_str     0x0000000000004cb0       0x38 c:/devkitPro/devkitPSP/psp/sdk/lib\libosl.a(oslLoadImageFile.o)
                                        0x326 (size before relaxing)
 .debug_str     0x0000000000004ce8       0xea c:/devkitPro/devkitPSP/psp/sdk/lib\libosl.a(oslShowSplashScreen1.o)
                                        0x59e (size before relaxing)
 .debug_str     0x0000000000004dd2       0x76 c:/devkitPro/devkitPSP/psp/sdk/lib\libosl.a(oslShowSplashScreen2.o)
                                        0x4c4 (size before relaxing)
 .debug_str     0x0000000000004e48       0x61 c:/devkitPro/devkitPSP/psp/sdk/lib\libosl.a(oslHandleLoadNoFailError.o)
                                        0x271 (size before relaxing)
 .debug_str     0x0000000000004ea9       0x2f c:/devkitPro/devkitPSP/psp/sdk/lib\libosl.a(oslMoveImageTo.o)
                                        0x332 (size before relaxing)
 .debug_str     0x0000000000004ed8       0xd8 c:/devkitPro/devkitPSP/psp/sdk/lib\libosl.a(oslLoadImageFilePNG.o)
                                       0x122d (size before relaxing)
 .debug_str     0x0000000000004fb0      0x378 c:/devkitPro/devkitPSP/psp/sdk/lib\libosl.a(oslLoadImageFileJPG.o)
                                        0x6c2 (size before relaxing)
 .debug_str     0x0000000000005328      0x275 c:/devkitPro/devkitPSP/psp/sdk/lib\libosl.a(oslLoadImageFileGIF.o)
                                        0x722 (size before relaxing)
 .debug_str     0x000000000000559d       0x77 c:/devkitPro/devkitPSP/psp/sdk/lib\libosl.a(oslConvertImageTo.o)
                                        0x3b6 (size before relaxing)
 .debug_str     0x0000000000005614       0x3c c:/devkitPro/devkitPSP/psp/sdk/lib\libosl.a(oslSetImagePixel.o)
                                        0x317 (size before relaxing)
 .debug_str     0x0000000000005650       0x2a c:/devkitPro/devkitPSP/psp/sdk/lib\libosl.a(oslGetImagePixel.o)
                                        0x30c (size before relaxing)
 .debug_str     0x000000000000567a      0x3c9 c:/devkitPro/devkitPSP/psp/sdk/lib\libosl.a(gba-jpeg-decode.o)
                                        0xa88 (size before relaxing)
 .debug_str     0x0000000000005a43      0x254 c:/devkitPro/devkitPSP/psp/sdk/lib\libosl.a(dgif_lib.o)
                                        0x934 (size before relaxing)
 .debug_str     0x0000000000005c97       0x1b c:/devkitPro/devkitPSP/psp/sdk/lib\libosl.a(gif_err.o)
                                        0x121 (size before relaxing)
 .debug_str     0x0000000000005cb2      0x10f c:/devkitPro/devkitPSP/psp/sdk/lib\libosl.a(gifalloc.o)
                                        0x3a8 (size before relaxing)

.debug_loc      0x0000000000000000     0xde04
 *(.debug_loc)
 .debug_loc     0x0000000000000000      0x1aa c:/devkitpro/devkitpsp/bin/../lib/gcc/psp/4.1.2/../../../../psp/lib/crt0.o
 .debug_loc     0x00000000000001aa      0x7e4 psp/sound.o
 .debug_loc     0x000000000000098e     0x1046 psp/gym/gym.o
 .debug_loc     0x00000000000019d4      0x7d9 psp/gym/gym_play.o
 .debug_loc     0x00000000000021ad     0x1753 psp/vgm/In_vgm.o
 .debug_loc     0x0000000000003900      0x652 c:/devkitPro/devkitPSP/psp/sdk/lib\libosl.a(oslib.o)
 .debug_loc     0x0000000000003f52      0xbc4 c:/devkitPro/devkitPSP/psp/sdk/lib\libosl.a(drawing.o)
 .debug_loc     0x0000000000004b16      0x80f c:/devkitPro/devkitPSP/psp/sdk/lib\libosl.a(image.o)
 .debug_loc     0x0000000000005325      0x28c c:/devkitPro/devkitPSP/psp/sdk/lib\libosl.a(palette.o)
 .debug_loc     0x00000000000055b1      0x465 c:/devkitPro/devkitPSP/psp/sdk/lib\libosl.a(shape.o)
 .debug_loc     0x0000000000005a16      0x346 c:/devkitPro/devkitPSP/psp/sdk/lib\libosl.a(messagebox.o)
 .debug_loc     0x0000000000005d5c       0x5d c:/devkitPro/devkitPSP/psp/sdk/lib\libosl.a(keys.o)
 .debug_loc     0x0000000000005db9      0xae1 c:/devkitPro/devkitPSP/psp/sdk/lib\libosl.a(text.o)
 .debug_loc     0x000000000000689a      0x1ff c:/devkitPro/devkitPSP/psp/sdk/lib\libosl.a(vram_mgr.o)
 .debug_loc     0x0000000000006a99     0x11c3 c:/devkitPro/devkitPSP/psp/sdk/lib\libosl.a(audio.o)
 .debug_loc     0x0000000000007c5c      0x61c c:/devkitPro/devkitPSP/psp/sdk/lib\libosl.a(bgm.o)
 .debug_loc     0x0000000000008278      0xb0d c:/devkitPro/devkitPSP/psp/sdk/lib\libosl.a(VirtualFile.o)
 .debug_loc     0x0000000000008d85      0x2d3 c:/devkitPro/devkitPSP/psp/sdk/lib\libosl.a(vfsFile.o)
 .debug_loc     0x0000000000009058      0x1c4 c:/devkitPro/devkitPSP/psp/sdk/lib\libosl.a(oslDrawImage.o)
 .debug_loc     0x000000000000921c       0xad c:/devkitPro/devkitPSP/psp/sdk/lib\libosl.a(oslDrawImageSimple.o)
 .debug_loc     0x00000000000092c9       0x5b c:/devkitPro/devkitPSP/psp/sdk/lib\libosl.a(oslLockImage.o)
 .debug_loc     0x0000000000009324      0x278 c:/devkitPro/devkitPSP/psp/sdk/lib\libosl.a(oslSwizzleImage.o)
 .debug_loc     0x000000000000959c       0x3d c:/devkitPro/devkitPSP/psp/sdk/lib\libosl.a(oslSetDrawBuffer.o)
 .debug_loc     0x00000000000095d9      0x2ea c:/devkitPro/devkitPSP/psp/sdk/lib\libosl.a(oslWriteImageFilePNG.o)
 .debug_loc     0x00000000000098c3      0x162 c:/devkitPro/devkitPSP/psp/sdk/lib\libosl.a(oslLoadImageFile.o)
 .debug_loc     0x0000000000009a25      0x3c1 c:/devkitPro/devkitPSP/psp/sdk/lib\libosl.a(oslShowSplashScreen1.o)
 .debug_loc     0x0000000000009de6      0x1f7 c:/devkitPro/devkitPSP/psp/sdk/lib\libosl.a(oslShowSplashScreen2.o)
 .debug_loc     0x0000000000009fdd       0x83 c:/devkitPro/devkitPSP/psp/sdk/lib\libosl.a(oslHandleLoadNoFailError.o)
 .debug_loc     0x000000000000a060       0x9e c:/devkitPro/devkitPSP/psp/sdk/lib\libosl.a(oslMoveImageTo.o)
 .debug_loc     0x000000000000a0fe      0x5a2 c:/devkitPro/devkitPSP/psp/sdk/lib\libosl.a(oslLoadImageFilePNG.o)
 .debug_loc     0x000000000000a6a0      0x153 c:/devkitPro/devkitPSP/psp/sdk/lib\libosl.a(oslLoadImageFileJPG.o)
 .debug_loc     0x000000000000a7f3      0x741 c:/devkitPro/devkitPSP/psp/sdk/lib\libosl.a(oslLoadImageFileGIF.o)
 .debug_loc     0x000000000000af34      0x16e c:/devkitPro/devkitPSP/psp/sdk/lib\libosl.a(oslConvertImageTo.o)
 .debug_loc     0x000000000000b0a2       0xc3 c:/devkitPro/devkitPSP/psp/sdk/lib\libosl.a(oslSetImagePixel.o)
 .debug_loc     0x000000000000b165       0xb8 c:/devkitPro/devkitPSP/psp/sdk/lib\libosl.a(oslGetImagePixel.o)
 .debug_loc     0x000000000000b21d     0x15ae c:/devkitPro/devkitPSP/psp/sdk/lib\libosl.a(gba-jpeg-decode.o)
 .debug_loc     0x000000000000c7cb      0xfea c:/devkitPro/devkitPSP/psp/sdk/lib\libosl.a(dgif_lib.o)
 .debug_loc     0x000000000000d7b5       0x13 c:/devkitPro/devkitPSP/psp/sdk/lib\libosl.a(gif_err.o)
 .debug_loc     0x000000000000d7c8      0x63c c:/devkitPro/devkitPSP/psp/sdk/lib\libosl.a(gifalloc.o)

.debug_macinfo
 *(.debug_macinfo)

.debug_weaknames
 *(.debug_weaknames)

.debug_funcnames
 *(.debug_funcnames)

.debug_typenames
 *(.debug_typenames)

.debug_varnames
 *(.debug_varnames)

/DISCARD/
 *(.comment)
 *(.pdr)
 *(.note.GNU-stack)
OUTPUT(MasterBoy.elf elf32-littlemips)

.mdebug.eabi32  0x0000000000000000        0x0

.gcc_compiled_long32
                0x0000000000000000        0x0

.debug_ranges   0x0000000000000000     0x14a8
 .debug_ranges  0x0000000000000000      0x1d0 psp/sound.o
 .debug_ranges  0x00000000000001d0      0x598 psp/gym/gym.o
 .debug_ranges  0x0000000000000768       0x30 psp/gym/gym_play.o
 .debug_ranges  0x0000000000000798      0x608 psp/vgm/In_vgm.o
 .debug_ranges  0x0000000000000da0       0x20 c:/devkitPro/devkitPSP/psp/sdk/lib\libosl.a(oslib.o)
 .debug_ranges  0x0000000000000dc0       0x20 c:/devkitPro/devkitPSP/psp/sdk/lib\libosl.a(drawing.o)
 .debug_ranges  0x0000000000000de0       0xa0 c:/devkitPro/devkitPSP/psp/sdk/lib\libosl.a(image.o)
 .debug_ranges  0x0000000000000e80       0x80 c:/devkitPro/devkitPSP/psp/sdk/lib\libosl.a(shape.o)
 .debug_ranges  0x0000000000000f00       0x58 c:/devkitPro/devkitPSP/psp/sdk/lib\libosl.a(text.o)
 .debug_ranges  0x0000000000000f58       0x18 c:/devkitPro/devkitPSP/psp/sdk/lib\libosl.a(vram_mgr.o)
 .debug_ranges  0x0000000000000f70       0x80 c:/devkitPro/devkitPSP/psp/sdk/lib\libosl.a(audio.o)
 .debug_ranges  0x0000000000000ff0       0x18 c:/devkitPro/devkitPSP/psp/sdk/lib\libosl.a(bgm.o)
 .debug_ranges  0x0000000000001008       0x30 c:/devkitPro/devkitPSP/psp/sdk/lib\libosl.a(VirtualFile.o)
 .debug_ranges  0x0000000000001038       0x20 c:/devkitPro/devkitPSP/psp/sdk/lib\libosl.a(oslLoadImageFile.o)
 .debug_ranges  0x0000000000001058       0xa0 c:/devkitPro/devkitPSP/psp/sdk/lib\libosl.a(oslShowSplashScreen1.o)
 .debug_ranges  0x00000000000010f8       0x18 c:/devkitPro/devkitPSP/psp/sdk/lib\libosl.a(oslShowSplashScreen2.o)
 .debug_ranges  0x0000000000001110       0x18 c:/devkitPro/devkitPSP/psp/sdk/lib\libosl.a(oslHandleLoadNoFailError.o)
 .debug_ranges  0x0000000000001128       0x40 c:/devkitPro/devkitPSP/psp/sdk/lib\libosl.a(oslMoveImageTo.o)
 .debug_ranges  0x0000000000001168       0x50 c:/devkitPro/devkitPSP/psp/sdk/lib\libosl.a(oslLoadImageFilePNG.o)
 .debug_ranges  0x00000000000011b8       0x18 c:/devkitPro/devkitPSP/psp/sdk/lib\libosl.a(oslLoadImageFileJPG.o)
 .debug_ranges  0x00000000000011d0       0x48 c:/devkitPro/devkitPSP/psp/sdk/lib\libosl.a(oslLoadImageFileGIF.o)
 .debug_ranges  0x0000000000001218       0x60 c:/devkitPro/devkitPSP/psp/sdk/lib\libosl.a(oslConvertImageTo.o)
 .debug_ranges  0x0000000000001278      0x1a0 c:/devkitPro/devkitPSP/psp/sdk/lib\libosl.a(gba-jpeg-decode.o)
 .debug_ranges  0x0000000000001418       0x78 c:/devkitPro/devkitPSP/psp/sdk/lib\libosl.a(dgif_lib.o)
 .debug_ranges  0x0000000000001490       0x18 c:/devkitPro/devkitPSP/psp/sdk/lib\libosl.a(gifalloc.o)
